(dp1
S'secondly'
p2
I1
sS'shelf'
p3
I4160
sS'limited'
p4
I3
sS'magnetic'
p5
I4
sS'child'
p6
I807
sS'yellow'
p7
I6
sS'sleek'
p8
I7
sS'four'
p9
I8
sS'sleep'
p10
I9
sS'mirage'
p11
I10
sS'appetite'
p12
I914
sS'captain'
p13
I12
sS'hate'
p14
I13
sS'unexperienced'
p15
I1865
sS'poorly'
p16
I15
sS'relationships'
p17
I16
sS'whose'
p18
I17
sS'chinese'
p19
I2441
sS'spew'
p20
I19
sS'sweetest'
p21
I20
sS'seriously'
p22
I1612
sS'dialing'
p23
I3253
sS'presents'
p24
I22
sS'fingernails'
p25
I23
sS'edward'
p26
I24
sS'sorrentino'
p27
I25
sS'whatsoever'
p28
I26
sS'under'
p29
I27
sS'rickman'
p30
I28
sS'lord'
p31
I29
sS'sorry'
p32
I30
sS'worth'
p33
I32
sS'placed'
p34
I4803
sS'sinking'
p35
I33
sS'swivel'
p36
I34
sS'struck'
p37
I2151
sS'risk'
p38
I36
sS'blanket'
p39
I39
sS'rise'
p40
I40
sS'smack'
p41
I41
sS'hitchcock'
p42
I3256
sS'every'
p43
I43
sS'jack'
p44
I44
sS'bertolucci'
p45
I45
sS'hitch'
p46
I46
sS'monkeys'
p47
I47
sS'tickets'
p48
I48
sS'believed'
p49
I3773
sS'school'
p50
I49
sS'wooden'
p51
I50
sS'pause'
p52
I4294
sS'loneliness'
p53
I51
sS'coppola'
p54
I3260
sS'venue'
p55
I52
sS'upload'
p56
I53
sS'upa'
p57
I54
sS'girolamo'
p58
I55
sS'solid'
p59
I3261
sS'haggis'
p60
I58
sS'falwell'
p61
I60
sS'artist'
p62
I1877
sS'glued'
p63
I62
sS'ups'
p64
I63
sS'clothes'
p65
I439
sS'enjoy'
p66
I65
sS'thing'
p67
I2826
sS'expanded'
p68
I3615
sS'force'
p69
I68
sS'specially'
p70
I69
sS'tired'
p71
I70
sS'phones'
p72
I71
sS'consistent'
p73
I72
sS'bubbling'
p74
I73
sS'bacon'
p75
I74
sS'japanese'
p76
I75
sS'charles'
p77
I4278
sS'budget'
p78
I3265
sS'chef'
p79
I78
sS'elegant'
p80
I79
sS'second'
p81
I80
sS'louder'
p82
I81
sS'gorman'
p83
I82
sS'emptiness'
p84
I83
sS'specs'
p85
I84
sS'theory'
p86
I1624
sS'even'
p87
I86
sS'established'
p88
I87
sS'errors'
p89
I88
sS'dialogs'
p90
I89
sS'pace'
p91
I3172
sS'ruthless'
p92
I92
sS'saved'
p93
I93
sS'cooking'
p94
I95
sS'fingers'
p95
I96
sS'asia'
p96
I97
sS'children'
p97
I2453
sS'lights'
p98
I98
sS'bonuses'
p99
I99
sS'above'
p100
I101
sS'new'
p101
I102
sS'tips'
p102
I103
sS'ever'
p103
I104
sS'croutons'
p104
I105
sS'disney'
p105
I106
sS'told'
p106
I107
sS'stinks'
p107
I108
sS'pats'
p108
I109
sS'hero'
p109
I111
sS'philippa'
p110
I112
sS'reporter'
p111
I113
sS'pancakes'
p112
I114
sS'never'
p113
I116
sS'disposable'
p114
I117
sS'meh'
p115
I118
sS'here'
p116
I119
sS'protection'
p117
I120
sS'china'
p118
I121
sS'cart'
p119
I2032
sS'cult'
p120
I123
sS'entire'
p121
I3706
sS'cardboard'
p122
I124
sS'mozzarella'
p123
I125
sS'celebration'
p124
I126
sS'dry'
p125
I127
sS'hell'
p126
I2749
sS'kids'
p127
I806
sS'daughter'
p128
I130
sS'oozes'
p129
I131
sS'rests'
p130
I132
sS'items'
p131
I133
sS'employees'
p132
I59
sS'controversy'
p133
I136
sS'kudos'
p134
I3751
sS'taped'
p135
I137
sS'smoke'
p136
I139
sS'browsing'
p137
I140
sS'military'
p138
I141
sS'spotty'
p139
I142
sS'changes'
p140
I143
sS'punishment'
p141
I894
sS'samsung'
p142
I4876
sS'golden'
p143
I147
sS'fantastic'
p144
I148
sS'secure'
p145
I149
sS'figure'
p146
I3832
sS'slices'
p147
I930
sS'straw'
p148
I151
sS'excuse'
p149
I2627
sS'highly'
p150
I152
sS'psychological'
p151
I153
sS'underrated'
p152
I3646
sS'moral'
p153
I154
sS'guests'
p154
I155
sS'turkey'
p155
I3434
sS'glance'
p156
I322
sS'total'
p157
I157
sS'schilling'
p158
I158
sS'unit'
p159
I159
sS'remaining'
p160
I3160
sS'plot'
p161
I161
sS'bonus'
p162
I4137
sS'dna'
p163
I162
sS'would'
p164
I163
sS'catchy'
p165
I164
sS'marine'
p166
I1637
sS'pulling'
p167
I3908
sS'negative'
p168
I167
sS'tenders'
p169
I168
sS'insult'
p170
I169
sS'chargers'
p171
I170
sS'music'
p172
I171
sS'giallo'
p173
I172
sS'recommend'
p174
I173
sS'strike'
p175
I174
sS'i'
I4556
sS'type'
p176
I176
sS'tell'
p177
I177
sS'voted'
p178
I178
sS'sushi'
p179
I180
sS'females'
p180
I181
sS'breeders'
p181
I182
sS'relax'
p182
I1152
sS'oscar'
p183
I184
sS'schrader'
p184
I185
sS'phony'
p185
I187
sS'award'
p186
I188
sS'hurt'
p187
I189
sS'warn'
p188
I190
sS'phone'
p189
I191
sS'reversible'
p190
I192
sS'pecan'
p191
I193
sS'rip'
p192
I3282
sS'tying'
p193
I194
sS'excellent'
p194
I195
sS'hole'
p195
I1219
sS'hold'
p196
I198
sS'circumstances'
p197
I1237
sS'me'
p198
I201
sS'directorial'
p199
I1246
sS'join'
p200
I115
sS'room'
p201
I204
sS'shame'
p202
I205
sS'setup'
p203
I207
sS'tremendously'
p204
I845
sS'littered'
p205
I4878
sS'entertained'
p206
I1293
sS'movies'
p207
I210
sS'era'
p208
I211
sS'install'
p209
I212
sS'akin'
p210
I214
sS'elegantly'
p211
I215
sS'my'
p212
I216
sS'example'
p213
I217
sS'scripting'
p214
I218
sS'grimes'
p215
I219
sS'vodka'
p216
I222
sS'headphones'
p217
I1644
sS'omelets'
p218
I223
sS'estate'
p219
I224
sS'give'
p220
I225
sS'indie'
p221
I226
sS'florida'
p222
I4101
sS'climax'
p223
I227
sS'bennett'
p224
I138
sS'laughs'
p225
I229
sS'shattered'
p226
I2455
sS'gadgets'
p227
I231
sS'foods'
p228
I233
sS'ishioka'
p229
I234
sS'fanciful'
p230
I235
sS'reviewing'
p231
I236
sS'want'
p232
I237
sS'premium'
p233
I2474
sS'drive'
p234
I4600
sS'keep'
p235
I4102
sS'functions'
p236
I4832
sS'absolute'
p237
I100
sS'preferably'
p238
I241
sS'biographical'
p239
I4182
sS'end'
p240
I243
sS'farce'
p241
I244
sS'carriers'
p242
I245
sS'provide'
p243
I246
sS'anguish'
p244
I3291
sS'treo'
p245
I3097
sS'trysts'
p246
I2081
sS'nuts'
p247
I249
sS'damage'
p248
I250
sS'machine'
p249
I251
sS'how'
p250
I252
sS'hot'
p251
I253
sS'writers'
p252
I254
sS'env'
p253
I255
sS'answer'
p254
I256
sS'disappoint'
p255
I257
sS'more'
p256
I2617
sS'chase'
p257
I3292
sS'charging'
p258
I258
sS'pizza'
p259
I259
sS'badly'
p260
I260
sS'description'
p261
I261
sS'beauty'
p262
I262
sS'funny'
p263
I3294
sS'mess'
p264
I264
sS'warm'
p265
I265
sS'after'
p266
I266
sS'imaginable'
p267
I267
sS'scottsdale'
p268
I268
sS'modest'
p269
I270
sS'fat'
p270
I2480
sS'characterisation'
p271
I4275
sS'president'
p272
I273
sS'summarize'
p273
I274
sS'law'
p274
I275
sS'lap'
p275
I276
sS'excited'
p276
I3371
sS'las'
p277
I277
sS'purchase'
p278
I279
sS'superbad'
p279
I280
sS'margaritas'
p280
I2003
sS'attempt'
p281
I282
sS'splendid'
p282
I283
sS'effective'
p283
I284
sS'sets'
p284
I4563
sS'appreciate'
p285
I286
sS'lost'
p286
I4632
sS'subplots'
p287
I287
sS'think'
p288
I1653
sS'owls'
p289
I289
sS'complexity'
p290
I290
sS'maintain'
p291
I291
sS'green'
p292
I292
sS'anita'
p293
I1660
sS'ho'
p294
I4786
sS'enter'
p295
I295
sS'bt'
p296
I3465
sS'worst'
p297
I2481
sS'operate'
p298
I298
sS'oysters'
p299
I299
sS'order'
p300
I300
sS'wind'
p301
I301
sS'wine'
p302
I302
sS'executed'
p303
I304
sS'unfolds'
p304
I305
sS'rudely'
p305
I2927
sS'dreamed'
p306
I308
sS'over'
p307
I309
sS'fall'
p308
I2483
sS'casted'
p309
I310
sS'satisfied'
p310
I311
sS'oven'
p311
I313
sS'keyboard'
p312
I314
sS'before'
p313
I316
sS'some'
p314
I3422
sS'fit'
p315
I317
sS'hypocrisy'
p316
I318
sS'somewhere'
p317
I319
sS'highlights'
p318
I320
sS'howdy'
p319
I321
sS'blown'
p320
I4841
sS'avocado'
p321
I323
sS'expectations'
p322
I324
sS'writing'
p323
I325
sS'better'
p324
I326
sS'thomerson'
p325
I327
sS'production'
p326
I328
sS'compelling'
p327
I329
sS'jenni'
p328
I4498
sS'weeks'
p329
I330
sS'ripped'
p330
I4691
sS'overnite'
p331
I331
sS'easier'
p332
I332
sS'overcome'
p333
I333
sS'then'
p334
I334
sS'them'
p335
I335
sS'affected'
p336
I337
sS'combination'
p337
I338
sS'gyros'
p338
I3884
sS'unemployed'
p339
I340
sS'scene'
p340
I4121
sS'break'
p341
I343
sS'band'
p342
I344
sS'caterpillar'
p343
I2597
sS'startac'
p344
I346
sS'therapy'
p345
I347
sS'effects'
p346
I348
sS'they'
p347
I349
sS'submerged'
p348
I3800
sS'downright'
p349
I500
sS'humanity'
p350
I351
sS'bank'
p351
I352
sS'bread'
p352
I353
sS'represents'
p353
I355
sS'indictment'
p354
I356
sS'meat'
p355
I357
sS'trinity'
p356
I4463
sS'potatoes'
p357
I359
sS'reasonably'
p358
I360
sS'sanyo'
p359
I361
sS'lucy'
p360
I362
sS'rocks'
p361
I363
sS'ventilation'
p362
I364
sS'bellucci'
p363
I4125
sS'daughters'
p364
I2430
sS'reasonable'
p365
I366
sS'each'
p366
I367
sS'volcano'
p367
I368
sS'went'
p368
I369
sS'european'
p369
I370
sS'side'
p370
I371
sS'bone'
p371
I372
sS'lasting'
p372
I373
sS'financial'
p373
I374
sS'dine'
p374
I3483
sS'series'
p375
I375
sS'doomed'
p376
I4161
sS'masterful'
p377
I4391
sS'tip'
p378
I3263
sS'used'
p379
I3310
sS'forgot'
p380
I379
sS'displeased'
p381
I3311
sS'sounds'
p382
I381
sS'by'
p383
I3472
sS'gon'
p384
I382
sS'velvet'
p385
I383
sS'network'
p386
I384
sS'driving'
p387
I385
sS'trumpeter'
p388
I386
sS'truth'
p389
I4693
sS'god'
p390
I388
sS'useless'
p391
I3373
sS'washed'
p392
I391
sS'timers'
p393
I392
sS'tomorrow'
p394
I1670
sS'__PAD__'
p395
I0
sS're'
p396
I395
sS'encourage'
p397
I396
sS'remorse'
p398
I397
sS'rare'
p399
I4709
sS'sturdiness'
p400
I399
sS'surprise'
p401
I1168
sS'accessible'
p402
I4648
sS'forth'
p403
I402
sS'sliding'
p404
I403
sS'smart'
p405
I4613
sS'mistakes'
p406
I4582
sS'musician'
p407
I3858
sS'asleep'
p408
I1900
sS'grease'
p409
I404
sS'linear'
p410
I405
sS'cutest'
p411
I406
sS'resume'
p412
I2533
sS'tops'
p413
I408
sS'revenge'
p414
I1534
sS'free'
p415
I410
sS'standard'
p416
I411
sS'appointments'
p417
I412
sS'masterpiece'
p418
I413
sS'overacting'
p419
I414
sS'struggle'
p420
I415
sS'elsewhere'
p421
I3535
sS'estevez'
p422
I416
sS'returning'
p423
I2476
sS'wanted'
p424
I418
sS'heat'
p425
I2665
sS'silent'
p426
I1675
sS'saggy'
p427
I421
sS'ate'
p428
I422
sS'bates'
p429
I423
sS'created'
p430
I424
sS'starts'
p431
I425
sS'inexpensive'
p432
I427
sS'messages'
p433
I428
sS'days'
p434
I429
sS'commented'
p435
I430
sS'creates'
p436
I431
sS'flawless'
p437
I432
sS'shipped'
p438
I433
sS'speedy'
p439
I434
sS'hopeless'
p440
I435
sS'unknown'
p441
I4141
sS'uses'
p442
I3120
sS'broken'
p443
I2233
sS'loud'
p444
I440
sS'caught'
p445
I1678
sS'stewart'
p446
I2733
sS'key'
p447
I4406
sS'industrial'
p448
I443
sS'features'
p449
I444
sS'grade'
p450
I445
sS'detailing'
p451
I4144
sS'landscapes'
p452
I3568
sS'primary'
p453
I448
sS'misplace'
p454
I449
sS'hearing'
p455
I450
sS'lovable'
p456
I451
sS'hook'
p457
I452
sS'downside'
p458
I453
sS'another'
p459
I454
sS'thick'
p460
I456
sS'clarity'
p461
I457
sS'researched'
p462
I458
sS'monotonous'
p463
I459
sS'cheerless'
p464
I460
sS'rated'
p465
I462
sS'service'
p466
I463
sS'psychotic'
p467
I1682
sS'overs'
p468
I885
sS'top'
p469
I466
sS'girls'
p470
I467
sS'thorsen'
p471
I469
sS'needed'
p472
I470
sS'compromise'
p473
I471
sS'too'
p474
I472
sS'tom'
p475
I473
sS'brevity'
p476
I1683
sS'hollywood'
p477
I475
sS'john'
p478
I476
sS'dogs'
p479
I477
sS'stupidity'
p480
I4093
sS'sergeant'
p481
I4150
sS'murder'
p482
I478
sS'horrendously'
p483
I479
sS'worse'
p484
I4829
sS'mechanism'
p485
I4224
sS'predictably'
p486
I481
sS'tool'
p487
I483
sS'serve'
p488
I484
sS'took'
p489
I485
sS'waster'
p490
I486
sS'sync'
p491
I2516
sS'predictable'
p492
I488
sS'stoic'
p493
I489
sS'somewhat'
p494
I490
sS'helen'
p495
I491
sS'wasted'
p496
I492
sS'linksys'
p497
I890
sS'crawl'
p498
I494
sS'horrible'
p499
I4385
sS'stocking'
p500
I496
sS'character'
p501
I758
sS'spoiler'
p502
I497
sS'trek'
p503
I498
sS'perfectly'
p504
I4152
sS'frankly'
p505
I1363
sS'surrounding'
p506
I502
sS'etc'
p507
I4418
sS'zero'
p508
I2521
sS'seated'
p509
I507
sS'ebay'
p510
I508
sS'duris'
p511
I509
sS'matter'
p512
I510
sS'hollander'
p513
I511
sS'fabulous'
p514
I512
sS'silly'
p515
I513
sS'painful'
p516
I4154
sS'deserving'
p517
I515
sS'spoiled'
p518
I516
sS'feeling'
p519
I519
sS'screenplay'
p520
I520
sS'mini'
p521
I521
sS'recognizes'
p522
I4723
sS'respecting'
p523
I523
sS'navigate'
p524
I524
sS'modern'
p525
I525
sS'mind'
p526
I526
sS'mine'
p527
I527
sS'glass'
p528
I528
sS'talking'
p529
I530
sS'graphics'
p530
I4475
sS'headbands'
p531
I4156
sS'corny'
p532
I532
sS'telly'
p533
I533
sS'seen'
p534
I534
sS'seem'
p535
I535
sS'mins'
p536
I536
sS'vandiver'
p537
I537
sS'giovanni'
p538
I538
sS'relatively'
p539
I539
sS'forced'
p540
I540
sS'strength'
p541
I542
sS'genuine'
p542
I543
sS'concrete'
p543
I3339
sS'convenient'
p544
I545
sS'latter'
p545
I546
sS'steamboat'
p546
I547
sS'snow'
p547
I548
sS'oriented'
p548
I549
sS'recommended'
p549
I550
sS'causing'
p550
I551
sS'amusing'
p551
I552
sS'forces'
p552
I553
sS'punish'
p553
I2499
sS'transmit'
p554
I555
sS'yucky'
p555
I556
sS'completed'
p556
I915
sS'crocs'
p557
I2253
sS'blue'
p558
I558
sS'exactly'
p559
I4162
sS'abysmal'
p560
I4837
sS'lion'
p561
I4176
sS'though'
p562
I561
sS'thrilled'
p563
I562
sS'jeff'
p564
I4086
sS'replenished'
p565
I563
sS'cinematic'
p566
I565
sS'dreary'
p567
I4163
sS'involving'
p568
I567
sS'mouth'
p569
I568
sS'plenty'
p570
I569
sS'scripts'
p571
I570
sS'corded'
p572
I572
sS'phantasm'
p573
I573
sS'jean'
p574
I574
sS'inexcusable'
p575
I575
sS'maria'
p576
I576
sS'hut'
p577
I4079
sS'episode'
p578
I578
sS'released'
p579
I1700
sS'suited'
p580
I4732
sS'soups'
p581
I580
sS'alarm'
p582
I581
sS'camp'
p583
I582
sS'm'
I583
sS'dog'
p584
I3581
sS'freeway'
p585
I585
sS'swamp'
p586
I586
sS'competitors'
p587
I587
sS'definitely'
p588
I588
sS'tech'
p589
I589
sS'pineapple'
p590
I1287
sS'communication'
p591
I3998
sS'dos'
p592
I592
sS'entertaining'
p593
I593
sS'consumer'
p594
I595
sS'scream'
p595
I596
sS'came'
p596
I597
sS'saying'
p597
I598
sS'overpriced'
p598
I599
sS'contacted'
p599
I600
sS'ringtones'
p600
I601
sS'lewis'
p601
I602
sS'random'
p602
I603
sS'brilliance'
p603
I605
sS'cancan'
p604
I606
sS'ending'
p605
I607
sS'colors'
p606
I608
sS'fooled'
p607
I1703
sS'subtle'
p608
I611
sS'certainly'
p609
I2551
sS'cheaply'
p610
I612
sS'lense'
p611
I613
sS'enjoyed'
p612
I614
sS'toast'
p613
I615
sS'touches'
p614
I616
sS'busy'
p615
I3774
sS'painfully'
p616
I618
sS'achille'
p617
I619
sS'quaint'
p618
I620
sS'holder'
p619
I1706
sS'explain'
p620
I622
sS'sugar'
p621
I623
sS'tries'
p622
I2708
sS'theme'
p623
I625
sS'rick'
p624
I627
sS'disgust'
p625
I628
sS'folks'
p626
I629
sS'insomniacs'
p627
I2539
sS'two'
p628
I2607
sS'rice'
p629
I632
sS'sporting'
p630
I2623
sS'borrowed'
p631
I387
sS'do'
p632
I637
sS'explorations'
p633
I638
sS'sunglasses'
p634
I639
sS'colorful'
p635
I640
sS'di'
p636
I3272
sS'de'
p637
I644
sS'stop'
p638
I645
sS'photograph'
p639
I4171
sS'simpler'
p640
I4706
sS'appetizer'
p641
I647
sS'pocket'
p642
I648
sS'amazon'
p643
I649
sS'emperor'
p644
I4725
sS'christopher'
p645
I650
sS'despite'
p646
I651
sS'tungsten'
p647
I652
sS'confortable'
p648
I4173
sS'nasty'
p649
I654
sS'dr'
p650
I655
sS'net'
p651
I656
sS'suffers'
p652
I3883
sS'runs'
p653
I659
sS'bar'
p654
I660
sS'sabotages'
p655
I1714
sS'greens'
p656
I14
sS'nicely'
p657
I663
sS'fields'
p658
I664
sS'dipping'
p659
I666
sS'idiotic'
p660
I667
sS'bay'
p661
I668
sS'twice'
p662
I669
sS'bad'
p663
I670
sS'shots'
p664
I671
sS'bec'
p665
I4174
sS'release'
p666
I673
sS'steak'
p667
I674
sS'adapters'
p668
I675
sS'ears'
p669
I677
sS'blew'
p670
I678
sS'disaster'
p671
I680
sS'keypad'
p672
I681
sS'triumphed'
p673
I682
sS'nut'
p674
I683
sS'recieve'
p675
I686
sS'pads'
p676
I687
sS'decided'
p677
I688
sS'result'
p678
I689
sS'horrendous'
p679
I690
sS'fail'
p680
I691
sS'disturbing'
p681
I692
sS'armageddon'
p682
I693
sS'noodles'
p683
I694
sS'smoothies'
p684
I695
sS'best'
p685
I696
sS'restocking'
p686
I697
sS'voyage'
p687
I698
sS'said'
p688
I699
sS'capacity'
p689
I700
sS'inappropriate'
p690
I701
sS'lots'
p691
I702
sS'away'
p692
I703
sS'rings'
p693
I704
sS'continually'
p694
I705
sS'grandmother'
p695
I706
sS'protected'
p696
I1721
sS'finger'
p697
I708
sS'timeframe'
p698
I709
sS'drawn'
p699
I710
sS'tolerance'
p700
I711
sS'witticisms'
p701
I2549
sS'discovery'
p702
I713
sS'we'
p703
I714
sS'terms'
p704
I715
sS'wb'
p705
I716
sS'relative'
p706
I1898
sS'nature'
p707
I717
sS'wo'
p708
I718
sS'feisty'
p709
I719
sS'weak'
p710
I721
sS'however'
p711
I722
sS'wi'
p712
I723
sS'boss'
p713
I724
sS'smeared'
p714
I3571
sS'wear'
p715
I726
sS'visited'
p716
I4183
sS'dedication'
p717
I728
sS'bose'
p718
I729
sS'roller'
p719
I731
sS'improve'
p720
I732
sS'received'
p721
I733
sS'essentially'
p722
I734
sS'accident'
p723
I735
sS'cow'
p724
I736
sS'brat'
p725
I737
sS'resistant'
p726
I738
sS'cox'
p727
I2276
sS'ill'
p728
I740
sS'subverting'
p729
I741
sS'strange'
p730
I4524
sS'against'
p731
I742
sS'players'
p732
I743
sS'else'
p733
I4870
sS'games'
p734
I744
sS'planned'
p735
I745
sS'receives'
p736
I746
sS'logic'
p737
I747
sS'exceeds'
p738
I748
sS'distinction'
p739
I749
sS'asked'
p740
I752
sS'con'
p741
I4451
sS'mortified'
p742
I755
sS'tone'
p743
I756
sS'legs'
p744
I646
sS'vain'
p745
I759
sS'exemplars'
p746
I761
sS'wagyu'
p747
I762
sS'tons'
p748
I763
sS'massive'
p749
I1650
sS'packaged'
p750
I4401
sS'quinn'
p751
I764
sS'tony'
p752
I765
sS'humming'
p753
I767
sS'trust'
p754
I768
sS'outshining'
p755
I769
sS'speak'
p756
I770
sS'gratitude'
p757
I771
sS'bathroom'
p758
I772
sS'petty'
p759
I773
sS'angel'
p760
I2281
sS'beef'
p761
I775
sS'source'
p762
I3365
sS'union'
p763
I777
sS'binge'
p764
I778
sS'buffets'
p765
I780
sS'three'
p766
I781
sS'tiny'
p767
I782
sS'quickly'
p768
I783
sS'beep'
p769
I784
sS'charisma'
p770
I785
sS'much'
p771
I786
sS'interest'
p772
I787
sS'basic'
p773
I788
sS'expected'
p774
I789
sS'fry'
p775
I790
sS'dozens'
p776
I791
sS'warmth'
p777
I792
sS'containers'
p778
I793
sS'threw'
p779
I794
sS'website'
p780
I795
sS'life'
p781
I796
sS'relaxing'
p782
I798
sS'attacked'
p783
I799
sS'concerning'
p784
I800
sS'sooooo'
p785
I801
sS'madhouse'
p786
I802
sS'filmmaker'
p787
I803
sS'zillion'
p788
I2399
sS'coherent'
p789
I805
sS'vulcan'
p790
I426
sS'personally'
p791
I5
sS'worked'
p792
I808
sS'regretted'
p793
I809
sS'bonding'
p794
I4637
sS'uplifting'
p795
I812
sS'combos'
p796
I42
sS'francis'
p797
I4754
sS'publicly'
p798
I814
sS'mesmerising'
p799
I816
sS'air'
p800
I643
sS'lesser'
p801
I818
sS'ugly'
p802
I819
sS'near'
p803
I820
sS'melted'
p804
I821
sS'neat'
p805
I822
sS'leaves'
p806
I826
sS'cracked'
p807
I823
sS'balance'
p808
I129
sS'armband'
p809
I825
sS'study'
p810
I134
sS'procedure'
p811
I827
sS'mistake'
p812
I828
sS'activesync'
p813
I4865
sS'hunan'
p814
I160
sS'played'
p815
I830
sS'iq'
p816
I831
sS'exceptionally'
p817
I1958
sS'is'
p818
I833
sS'ir'
p819
I834
sS'it'
p820
I835
sS'letdown'
p821
I836
sS'player'
p822
I837
sS'cant'
p823
I838
sS'im'
p824
I839
sS'experience'
p825
I2573
sS'exterior'
p826
I841
sS'in'
p827
I842
sS'violin'
p828
I844
sS'mouse'
p829
I846
sS'sells'
p830
I1747
sS'sever'
p831
I848
sS'if'
p832
I849
sS'containing'
p833
I850
sS'credit'
p834
I852
sS'patent'
p835
I853
sS'suggest'
p836
I754
sS'make'
p837
I855
sS'wound'
p838
I294
sS'jerry'
p839
I857
sS'linked'
p840
I4209
sS'drawback'
p841
I860
sS'potentially'
p842
I861
sS'belly'
p843
I862
sS'unfortunate'
p844
I863
sS'big'
p845
I3379
sS'plater'
p846
I110
sS'several'
p847
I867
sS'mayo'
p848
I868
sS'bells'
p849
I870
sS'fairly'
p850
I871
sS'shatner'
p851
I872
sS'boiled'
p852
I873
sS'hang'
p853
I876
sS'evil'
p854
I877
sS'hand'
p855
I878
sS'delight'
p856
I879
sS'fridays'
p857
I880
sS'garlic'
p858
I3816
sS'characters'
p859
I882
sS'tuna'
p860
I883
sS'overt'
p861
I884
sS'opportunity'
p862
I465
sS'thoughts'
p863
I886
sS'kid'
p864
I887
sS'butter'
p865
I888
sS'compared'
p866
I4833
sS'dylan'
p867
I889
sS'kept'
p868
I493
sS'cross'
p869
I4520
sS'charlie'
p870
I892
sS'game'
p871
I3383
sS'cancellation'
p872
I144
sS'rge'
p873
I4307
sS'campy'
p874
I895
sS'contact'
p875
I896
sS'greatest'
p876
I897
sS'qualities'
p877
I898
sS'mother'
p878
I899
sS'hearts'
p879
I900
sS'the'
p880
I901
sS'flops'
p881
I902
sS'insert'
p882
I4628
sS'mic'
p883
I4220
sS'dads'
p884
I905
sS'left'
p885
I906
sS'seasonal'
p886
I907
sS'just'
p887
I910
sS'photo'
p888
I911
sS'laptop'
p889
I912
sS'sorely'
p890
I4399
sS'identify'
p891
I916
sS'thanks'
p892
I917
sS'human'
p893
I918
sS'yes'
p894
I920
sS'yet'
p895
I921
sS'previous'
p896
I922
sS'note'
p897
I1762
sS'buyers'
p898
I924
sS'progresses'
p899
I1183
sS'ham'
p900
I926
sS'han'
p901
I927
sS'dining'
p902
I2565
sS'ease'
p903
I929
sS'boot'
p904
I4838
sS'had'
p905
I931
sS'hay'
p906
I933
sS'cinematographers'
p907
I934
sS'n'
I817
sS'transformed'
p908
I936
sS'easy'
p909
I937
sS'plans'
p910
I2702
sS'earpieces'
p911
I939
sS'pitiful'
p912
I940
sS'save'
p913
I941
sS'hat'
p914
I942
sS'tolerable'
p915
I943
sS'deadly'
p916
I4836
sS'gave'
p917
I944
sS'actresses'
p918
I945
sS'usable'
p919
I946
sS'hide'
p920
I947
sS'casting'
p921
I948
sS'freedom'
p922
I4713
sS'incorrectness'
p923
I950
sS'breaks'
p924
I951
sS'possible'
p925
I952
sS'gristle'
p926
I954
sS'possibly'
p927
I955
sS'boxes'
p928
I956
sS'seperate'
p929
I3391
sS'background'
p930
I957
sS'destroy'
p931
I958
sS'judge'
p932
I959
sS'cape'
p933
I960
sS'strap'
p934
I961
sS'dreams'
p935
I962
sS'apart'
p936
I963
sS'dignity'
p937
I949
sS'articulated'
p938
I966
sS'defensemen'
p939
I967
sS'pushed'
p940
I2669
sS'nude'
p941
I969
sS'performing'
p942
I970
sS'manual'
p943
I971
sS'unnecessary'
p944
I972
sS'unbearably'
p945
I4232
sS'intermittently'
p946
I974
sS'informative'
p947
I975
sS'snug'
p948
I2596
sS'night'
p949
I978
sS'cheesiness'
p950
I979
sS'revisiting'
p951
I980
sS'signal'
p952
I3395
sS'meats'
p953
I983
sS'superlative'
p954
I985
sS'right'
p955
I986
sS'old'
p956
I987
sS'ole'
p957
I988
sS'deal'
p958
I989
sS'crowe'
p959
I604
sS'vx'
p960
I4512
sS'exclaim'
p961
I4410
sS'deaf'
p962
I992
sS'somehow'
p963
I993
sS'dead'
p964
I994
sS'jennifer'
p965
I995
sS'coziness'
p966
I996
sS'kieslowski'
p967
I997
sS'pain'
p968
I1776
sS'bore'
p969
I999
sS'guess'
p970
I2915
sS'perfected'
p971
I1000
sS'confusing'
p972
I1001
sS'pixel'
p973
I4003
sS'theatrical'
p974
I1002
sS'shakespears'
p975
I1004
sS'humor'
p976
I1005
sS'tracked'
p977
I1006
sS'for'
p978
I1007
sS'bottom'
p979
I1008
sS'phenomenal'
p980
I1009
sS'ear'
p981
I4788
sS'companions'
p982
I1010
sS'fox'
p983
I1011
sS'artiness'
p984
I1012
sS'ice'
p985
I1218
sS'creative'
p986
I1014
sS'contributing'
p987
I1222
sS'everything'
p988
I1016
sS'asking'
p989
I1017
sS'lg'
p990
I3985
sS'feelings'
p991
I4859
sS'provoking'
p992
I3403
sS'baklava'
p993
I1020
sS'adorable'
p994
I1021
sS'christmas'
p995
I1022
sS'booking'
p996
I1023
sS'bisque'
p997
I1024
sS'core'
p998
I1026
sS'slavic'
p999
I1027
sS'tartar'
p1000
I1054
sS'bold'
p1001
I1030
sS'dropped'
p1002
I3892
sS'corn'
p1003
I1032
sS'pens'
p1004
I2757
sS'discount'
p1005
I1033
sS'blandest'
p1006
I1034
sS'shifting'
p1007
I1035
sS'buffet'
p1008
I1784
sS'starring'
p1009
I1037
sS'losing'
p1010
I1038
sS'memorable'
p1011
I1365
sS'post'
p1012
I1040
sS'super'
p1013
I1041
sS'takes'
p1014
I2604
sS'plug'
p1015
I1043
sS'empowerment'
p1016
I1044
sS'dollars'
p1017
I1046
sS'months'
p1018
I1047
sS'words'
p1019
I4331
sS'o'
I1048
sS'cliche'
p1020
I1050
sS'misleading'
p1021
I1051
sS'plus'
p1022
I1052
sS'afternoon'
p1023
I1053
sS'emilio'
p1024
I1055
sS'efforts'
p1025
I1056
sS'slightly'
p1026
I1057
sS'doctor'
p1027
I2723
sS'match'
p1028
I4616
sS'destination'
p1029
I2605
sS'presence'
p1030
I1059
sS'wasting'
p1031
I1060
sS'puzzle'
p1032
I1062
sS'connor'
p1033
I1786
sS'chimp'
p1034
I1064
sS'speakerphone'
p1035
I3674
sS'son'
p1036
I1065
sS'down'
p1037
I1066
sS'lies'
p1038
I1571
sS'sos'
p1039
I1068
sS'ussr'
p1040
I1069
sS'adventure'
p1041
I4045
sS'narration'
p1042
I1071
sS'wrap'
p1043
I1072
sS'shoots'
p1044
I1073
sS'despised'
p1045
I1075
sS'overhaul'
p1046
I4407
sS'crowd'
p1047
I1076
sS'leaks'
p1048
I1077
sS'amazingly'
p1049
I1078
sS'support'
p1050
I1079
sS'constantly'
p1051
I1080
sS'vision'
p1052
I1891
sS'soyo'
p1053
I2804
sS'why'
p1054
I4248
sS'virgin'
p1055
I1083
sS'accordingly'
p1056
I1084
sS'leaf'
p1057
I4673
sS'fraction'
p1058
I1085
sS'greatness'
p1059
I1086
sS'call'
p1060
I1088
sS'was'
p1061
I1090
sS'war'
p1062
I1091
sS'happy'
p1063
I1092
sS'head'
p1064
I1094
sS'medium'
p1065
I1095
sS'offering'
p1066
I1097
sS'offer'
p1067
I1098
sS'fascination'
p1068
I1099
sS'proudly'
p1069
I1100
sS'singing'
p1070
I4742
sS'ford'
p1071
I1102
sS'wireless'
p1072
I1103
sS'talents'
p1073
I1799
sS'hear'
p1074
I1105
sS'elderly'
p1075
I1106
sS'learned'
p1076
I2542
sS'patient'
p1077
I3458
sS'true'
p1078
I1108
sS'fort'
p1079
I1109
sS'admiration'
p1080
I1110
sS'portions'
p1081
I1111
sS'flawlessly'
p1082
I1794
sS'array'
p1083
I4055
sS'prevents'
p1084
I1114
sS'inside'
p1085
I1115
sS'attached'
p1086
I1116
sS'bargain'
p1087
I1117
sS'devices'
p1088
I1118
sS'until'
p1089
I1119
sS'stagey'
p1090
I1120
sS'tucson'
p1091
I1121
sS'insincere'
p1092
I3426
sS'simplifying'
p1093
I1122
sS'sides'
p1094
I3624
sS'heimer'
p1095
I2277
sS'duet'
p1096
I1125
sS'latch'
p1097
I1126
sS'propaganda'
p1098
I1127
sS'feet'
p1099
I2903
sS'delete'
p1100
I1128
sS'fulfills'
p1101
I1129
sS'wily'
p1102
I4483
sS'later'
p1103
I1798
sS'disgrace'
p1104
I1131
sS'sticks'
p1105
I1132
sS'classic'
p1106
I1133
sS'jabra'
p1107
I1134
sS'shined'
p1108
I1135
sS'covers'
p1109
I1136
sS'meagre'
p1110
I1137
sS'qwerty'
p1111
I1138
sS'held'
p1112
I2744
sS'promised'
p1113
I1139
sS'fashioned'
p1114
I1140
sS'believable'
p1115
I1141
sS'mediocre'
p1116
I1142
sS'annoying'
p1117
I1143
sS'portrayed'
p1118
I76
sS'check'
p1119
I1145
sS'constructed'
p1120
I1146
sS'apartment'
p1121
I2457
sS'faithful'
p1122
I1147
sS'dying'
p1123
I1148
sS'no'
p1124
I1149
sS'na'
p1125
I1150
sS'commercials'
p1126
I1151
sS'when'
p1127
I1153
sS'actor'
p1128
I1154
sS'reality'
p1129
I1155
sS'interested'
p1130
I1157
sS'role'
p1131
I1158
sS'holding'
p1132
I1159
sS'brings'
p1133
I1160
sS'smell'
p1134
I1162
sS'regrettable'
p1135
I633
sS'picture'
p1136
I1166
sS'palms'
p1137
I1167
sS'dustin'
p1138
I4001
sS'felt'
p1139
I1169
sS'convincing'
p1140
I1170
sS'update'
p1141
I1171
sS'improvisation'
p1142
I1172
sS'stockings'
p1143
I1174
sS'journey'
p1144
I1175
sS'transfers'
p1145
I1177
sS'pizzas'
p1146
I2291
sS'weekend'
p1147
I4576
sS'carries'
p1148
I4719
sS'died'
p1149
I1180
sS'babysitting'
p1150
I2306
sS'jones'
p1151
I1182
sS'younger'
p1152
I2314
sS'faster'
p1153
I1185
sS'apology'
p1154
I1186
sS'potato'
p1155
I1187
sS'normally'
p1156
I4268
sS'kristoffersen'
p1157
I1342
sS'together'
p1158
I1192
sS'loyal'
p1159
I2383
sS'sobering'
p1160
I1195
sS'reception'
p1161
I1196
sS'time'
p1162
I1197
sS'push'
p1163
I1198
sS'serious'
p1164
I1199
sS'decision'
p1165
I3444
sS'restored'
p1166
I1201
sS'songs'
p1167
I1202
sS'coach'
p1168
I1204
sS'managed'
p1169
I1205
sS'impulse'
p1170
I1206
sS'remarkable'
p1171
I1207
sS'whoever'
p1172
I1208
sS'dance'
p1173
I1209
sS'skip'
p1174
I1210
sS'activated'
p1175
I1211
sS'focus'
p1176
I1212
sS'integration'
p1177
I3447
sS'themes'
p1178
I1214
sS'manager'
p1179
I1215
sS'manages'
p1180
I1216
sS'marion'
p1181
I1217
sS'comments'
p1182
I1013
sS'milk'
p1183
I2537
sS'recharge'
p1184
I1220
sS'layers'
p1185
I1221
sS'witty'
p1186
I1015
sS'supposedly'
p1187
I1223
sS'killings'
p1188
I1224
sS'yummy'
p1189
I2558
sS'flash'
p1190
I1227
sS'father'
p1191
I1228
sS'disgusting'
p1192
I1229
sS'vey'
p1193
I1231
sS'amaze'
p1194
I1232
sS'finally'
p1195
I617
sS'unpleasant'
p1196
I1234
sS'text'
p1197
I4276
sS'terror'
p1198
I1235
sS'suffered'
p1199
I1236
sS'must'
p1200
I200
sS'southwest'
p1201
I938
sS'division'
p1202
I1241
sS'protective'
p1203
I1242
sS'excalibur'
p1204
I1243
sS'string'
p1205
I1244
sS'jerk'
p1206
I1245
sS'grill'
p1207
I2639
sS'dependant'
p1208
I4279
sS'none'
p1209
I2640
sS'vegan'
p1210
I1249
sS'choice'
p1211
I1250
sS'bechard'
p1212
I4882
sS'vegas'
p1213
I2728
sS'tanks'
p1214
I1252
sS'stays'
p1215
I1253
sS'cook'
p1216
I1254
sS'locked'
p1217
I203
sS'trouble'
p1218
I1256
sS'minute'
p1219
I1258
sS'cool'
p1220
I1259
sS'cardellini'
p1221
I1260
sS'impressive'
p1222
I1261
sS'level'
p1223
I1262
sS'did'
p1224
I1263
sS'die'
p1225
I662
sS'jamie'
p1226
I2940
sS'audio'
p1227
I4565
sS'accidentally'
p1228
I1265
sS'leave'
p1229
I1267
sS'item'
p1230
I1268
sS'soooo'
p1231
I1269
sS'kits'
p1232
I4284
sS'brownish'
p1233
I1271
sS'subway'
p1234
I1272
sS'team'
p1235
I1273
sS'quick'
p1236
I1274
sS'loads'
p1237
I1275
sS'woven'
p1238
I1277
sS'round'
p1239
I1278
sS'drawings'
p1240
I1826
sS'upper'
p1241
I1281
sS'pork'
p1242
I1282
sS'work'
p1243
I208
sS'says'
p1244
I1284
sS'regret'
p1245
I1285
sS'be'
p1246
I3456
sS'seasoning'
p1247
I1288
sS'sucks'
p1248
I2646
sS'steaks'
p1249
I760
sS'cost'
p1250
I1292
sS'worn'
p1251
I209
sS'comforting'
p1252
I1294
sS'utter'
p1253
I4286
sS'meanings'
p1254
I1029
sS'port'
p1255
I1297
sS'drinks'
p1256
I1298
sS'headset'
p1257
I1299
sS'tartare'
p1258
I1300
sS'church'
p1259
I4656
sS'imagined'
p1260
I1831
sS'lead'
p1261
I4675
sS'debated'
p1262
I2649
sS'fillet'
p1263
I594
sS'current'
p1264
I1304
sS'goes'
p1265
I1305
sS'nine'
p1266
I2651
sS'falling'
p1267
I1307
sS'boost'
p1268
I1308
sS'masterpieces'
p1269
I3941
sS'unintentionally'
p1270
I1310
sS'supporting'
p1271
I1311
sS'angelina'
p1272
I1312
sS'explosion'
p1273
I1313
sS'ms'
p1274
I1314
sS'mussels'
p1275
I1315
sS'slackers'
p1276
I1316
sS'french'
p1277
I1317
sS'understanding'
p1278
I1318
sS'water'
p1279
I1319
sS'slow'
p1280
I1834
sS'baseball'
p1281
I1322
sS'groups'
p1282
I1323
sS'address'
p1283
I1324
sS'alone'
p1284
I1325
sS'noir'
p1285
I4295
sS'along'
p1286
I1327
sS'refused'
p1287
I3464
sS'teaches'
p1288
I1329
sS'appears'
p1289
I1330
sS'change'
p1290
I1331
sS'wait'
p1291
I1332
sS'box'
p1292
I1333
sS'sending'
p1293
I1334
sS'hbo'
p1294
I1335
sS'male'
p1295
I2656
sS'incoming'
p1296
I1336
sS'thirty'
p1297
I1338
sS'mchattie'
p1298
I1339
sS'brilliant'
p1299
I1340
sS'pearls'
p1300
I1341
sS'step'
p1301
I3466
sS'salty'
p1302
I4256
sS'usually'
p1303
I1348
sS'hospitality'
p1304
I1349
sS'weird'
p1305
I1350
sS'entrees'
p1306
I1351
sS'pillow'
p1307
I1352
sS'genuinely'
p1308
I1353
sS'emerge'
p1309
I1355
sS'winner'
p1310
I4297
sS'useful'
p1311
I1356
sS'lasts'
p1312
I3467
sS'humour'
p1313
I1358
sS'extra'
p1314
I1359
sS'length'
p1315
I4104
sS'prefer'
p1316
I1361
sS'bullock'
p1317
I1362
sS'verge'
p1318
I1364
sS'ians'
p1319
I1025
sS'prompt'
p1320
I1366
sS'rarely'
p1321
I1368
sS'market'
p1322
I1369
sS'sympathetic'
p1323
I1213
sS'retarded'
p1324
I3178
sS'handled'
p1325
I1373
sS'working'
p1326
I1374
sS'driest'
p1327
I1375
sS'sake'
p1328
I753
sS'positive'
p1329
I1377
sS'angry'
p1330
I1378
sS'visit'
p1331
I1379
sS'only'
p1332
I1846
sS'tightly'
p1333
I1381
sS'intense'
p1334
I1382
sS'dustpan'
p1335
I1383
sS'creamy'
p1336
I1384
sS'handles'
p1337
I1385
sS'going'
p1338
I1847
sS'wonderfully'
p1339
I1387
sS'iphone'
p1340
I1388
sS'memory'
p1341
I1389
sS'films'
p1342
I1390
sS'thru'
p1343
I1391
sS'today'
p1344
I1392
sS'loving'
p1345
I1393
sS'scratched'
p1346
I1394
sS'smudged'
p1347
I1395
sS'sharing'
p1348
I1396
sS'crayon'
p1349
I3721
sS'marbles'
p1350
I1397
sS'emoting'
p1351
I1398
sS'club'
p1352
I1399
sS'share'
p1353
I2667
sS'acceptable'
p1354
I1401
sS'cashier'
p1355
I1403
sS'chocolate'
p1356
I1405
sS'downtown'
p1357
I1406
sS'visual'
p1358
I3637
sS'everywhere'
p1359
I1408
sS'virtue'
p1360
I1409
sS'cases'
p1361
I1411
sS'given'
p1362
I1673
sS'effort'
p1363
I1412
sS'fly'
p1364
I1414
sS'judo'
p1365
I1415
sS'anything'
p1366
I3476
sS'defeats'
p1367
I1417
sS'drago'
p1368
I1418
sS'avoiding'
p1369
I1419
sS'originally'
p1370
I1420
sS'netflix'
p1371
I3477
sS'soul'
p1372
I1422
sS'cat'
p1373
I1423
sS'reviews'
p1374
I1424
sS'wallet'
p1375
I1425
sS'hardest'
p1376
I1426
sS'sour'
p1377
I1427
sS'indescribably'
p1378
I739
sS'can'
p1379
I1429
sS'following'
p1380
I1431
sS'making'
p1381
I1432
sS'connoisseur'
p1382
I1430
sS'caf'
p1383
I1434
sS'slightest'
p1384
I609
sS'numbers'
p1385
I2672
sS'geeky'
p1386
I1437
sS'spy'
p1387
I1178
sS'crazy'
p1388
I1439
sS'eclectic'
p1389
I4756
sS'earphone'
p1390
I1441
sS'stream'
p1391
I1442
sS'kiddos'
p1392
I495
sS'awesome'
p1393
I1444
sS'lordy'
p1394
I1445
sS'sample'
p1395
I3873
sS'locks'
p1396
I1448
sS'negulesco'
p1397
I1449
sS'performed'
p1398
I1450
sS'gallon'
p1399
I1451
sS'confuses'
p1400
I1452
sS'occur'
p1401
I1453
sS'backdrop'
p1402
I1804
sS'pink'
p1403
I1454
sS'hinge'
p1404
I3480
sS'lacks'
p1405
I2676
sS'requirements'
p1406
I1457
sS'deserves'
p1407
I3481
sS'savor'
p1408
I1458
sS'watching'
p1409
I1852
sS'brand'
p1410
I4776
sS'magazine'
p1411
I1460
sS'pine'
p1412
I1461
sS'freezes'
p1413
I1462
sS'write'
p1414
I1463
sS'sunday'
p1415
I1464
sS'rubin'
p1416
I1465
sS'fourth'
p1417
I1467
sS'grossed'
p1418
I1468
sS'nyc'
p1419
I1469
sS'looses'
p1420
I240
sS'photography'
p1421
I4321
sS'flavored'
p1422
I1472
sS'edinburgh'
p1423
I1473
sS'product'
p1424
I1474
sS'designer'
p1425
I1475
sS'custer'
p1426
I1476
sS'may'
p1427
I1477
sS'max'
p1428
I1478
sS'use'
p1429
I3829
sS'spot'
p1430
I1479
sS'accessory'
p1431
I1480
sS'crashed'
p1432
I1481
sS'mac'
p1433
I1482
sS'produce'
p1434
I1483
sS'designed'
p1435
I1484
sS'noise'
p1436
I4692
sS'date'
p1437
I1485
sS'such'
p1438
I1486
sS'heroes'
p1439
I1487
sS'data'
p1440
I1488
sS'lacked'
p1441
I1489
sS'unbelievably'
p1442
I1490
sS'man'
p1443
I1491
sS'vomited'
p1444
I1492
sS'stress'
p1445
I1493
sS'aimless'
p1446
I1494
sS'natural'
p1447
I1495
sS'drained'
p1448
I2682
sS'succeeded'
p1449
I1497
sS'whenever'
p1450
I1498
sS'maybe'
p1451
I1499
sS'tapas'
p1452
I1500
sS'simple'
p1453
I4605
sS'tale'
p1454
I1504
sS'inform'
p1455
I1505
sS'switch'
p1456
I1506
sS'mango'
p1457
I1507
sS'so'
p1458
I1508
sS'sitcoms'
p1459
I1509
sS'offend'
p1460
I1510
sS'arrived'
p1461
I3323
sS'fireball'
p1462
I4022
sS'pulled'
p1463
I1512
sS'talk'
p1464
I1513
sS'nearly'
p1465
I1866
sS'refund'
p1466
I1515
sS'cute'
p1467
I1516
sS'serving'
p1468
I811
sS'shield'
p1469
I1518
sS'noteworthy'
p1470
I1519
sS'indeed'
p1471
I1520
sS'mainly'
p1472
I1521
sS'unacceptable'
p1473
I1522
sS'years'
p1474
I1523
sS'course'
p1475
I1524
sS'episodes'
p1476
I1525
sS'accolades'
p1477
I1526
sS'cuts'
p1478
I1528
sS'argued'
p1479
I1529
sS'cold'
p1480
I1530
sS'still'
p1481
I1531
sS'ethic'
p1482
I1532
sS'adhesive'
p1483
I1533
sS'group'
p1484
I1535
sS'thank'
p1485
I1536
sS'interesting'
p1486
I1537
sS'bagels'
p1487
I1538
sS'jim'
p1488
I1539
sS'amazing'
p1489
I1540
sS'styrofoam'
p1490
I4334
sS'soi'
p1491
I1542
sS'window'
p1492
I1543
sS'offers'
p1493
I1544
sS'mail'
p1494
I1545
sS'hanks'
p1495
I1546
sS'main'
p1496
I1547
sS'yama'
p1497
I1548
sS'texas'
p1498
I1549
sS'happened'
p1499
I1550
sS'non'
p1500
I1551
sS'within'
p1501
I3502
sS'disparate'
p1502
I1552
sS'views'
p1503
I1553
sS'listener'
p1504
I4326
sS'conversations'
p1505
I1554
sS'killer'
p1506
I1555
sS'hilarious'
p1507
I4072
sS'sooner'
p1508
I1557
sS'underneath'
p1509
I1558
sS'interview'
p1510
I1559
sS'billy'
p1511
I4676
sS'touching'
p1512
I1560
sS'half'
p1513
I1561
sS'not'
p1514
I1562
sS'feature'
p1515
I1563
sS'now'
p1516
I1564
sS'nor'
p1517
I1257
sS'wont'
p1518
I1566
sS'gere'
p1519
I3833
sS'idyllic'
p1520
I1568
sS'name'
p1521
I1569
sS'relleno'
p1522
I1176
sS'rendering'
p1523
I4306
sS'james'
p1524
I1572
sS'drop'
p1525
I1573
sS'slurs'
p1526
I1574
sS'fs'
p1527
I3732
sS'realistic'
p1528
I1576
sS'intrigued'
p1529
I1577
sS'wong'
p1530
I1578
sS'rock'
p1531
I1579
sS'showcasing'
p1532
I1580
sS'entirely'
p1533
I1581
sS'revere'
p1534
I1582
sS'sugary'
p1535
I1583
sS'en'
p1536
I1584
sS'significantly'
p1537
I1585
sS'buyer'
p1538
I4332
sS'ed'
p1539
I1586
sS'receipt'
p1540
I1587
sS'directing'
p1541
I1588
sS'yeah'
p1542
I1589
sS'challenges'
p1543
I1590
sS'balanced'
p1544
I1591
sS'catching'
p1545
I1592
sS'taxidermists'
p1546
I1594
sS'year'
p1547
I1595
sS'ft'
p1548
I2701
sS'girl'
p1549
I1597
sS'morning'
p1550
I1881
sS'salads'
p1551
I1599
sS'wedges'
p1552
I3343
sS'intended'
p1553
I1600
sS'canada'
p1554
I1601
sS'living'
p1555
I1602
sS'mouths'
p1556
I642
sS'twirling'
p1557
I4663
sS'space'
p1558
I1605
sS'tensions'
p1559
I1607
sS'furthermore'
p1560
I1608
sS'miyazaki'
p1561
I1609
sS'factory'
p1562
I1610
sS'increase'
p1563
I1511
sS'contained'
p1564
I21
sS'stupid'
p1565
I1885
sS'unforgettable'
p1566
I1470
sS'yardley'
p1567
I2615
sS'skype'
p1568
I3287
sS'internet'
p1569
I1615
sS'dinner'
p1570
I1616
sS'receiving'
p1571
I1617
sS'sensor'
p1572
I1618
sS'correct'
p1573
I1619
sS'shows'
p1574
I1620
sS'goth'
p1575
I1622
sS'earlier'
p1576
I1623
sS'monster'
p1577
I85
sS'state'
p1578
I4381
sS'huevos'
p1579
I1625
sS'cars'
p1580
I1626
sS'satanic'
p1581
I1627
sS'boobs'
p1582
I1629
sS'possibility'
p1583
I1630
sS'quite'
p1584
I1631
sS'five'
p1585
I4621
sS'aria'
p1586
I3966
sS'california'
p1587
I1633
sS'besides'
p1588
I1635
sS'stanwyck'
p1589
I1636
sS'keith'
p1590
I165
sS'card'
p1591
I1638
sS'care'
p1592
I1639
sS'selections'
p1593
I1642
sS'waiter'
p1594
I1643
sS'stories'
p1595
I4806
sS'greenstreet'
p1596
I1632
sS'squibs'
p1597
I230
sS'honest'
p1598
I1646
sS'motion'
p1599
I1647
sS'turn'
p1600
I1648
sS'lie'
p1601
I3312
sS'place'
p1602
I1649
sS'silently'
p1603
I875
sS'bothersome'
p1604
I1651
sS'yun'
p1605
I1652
sS'childhood'
p1606
I288
sS'waited'
p1607
I1654
sS'first'
p1608
I1655
sS'emotion'
p1609
I1656
sS'cheese'
p1610
I1657
sS'flying'
p1611
I1658
sS'saving'
p1612
I1659
sS'entrance'
p1613
I3580
sS'yourself'
p1614
I350
sS'company'
p1615
I2625
sS'americans'
p1616
I1662
sS'fast'
p1617
I3523
sS'directly'
p1618
I1664
sS'fi'
p1619
I2713
sS'carry'
p1620
I1666
sS'impossible'
p1621
I1667
sS'potted'
p1622
I398
sS'open'
p1623
I1669
sS'cheesy'
p1624
I393
sS'size'
p1625
I1671
sS'iam'
p1626
I1672
sS'little'
p1627
I409
sS'checked'
p1628
I1674
sS'personalities'
p1629
I420
sS'stuck'
p1630
I1676
sS'murky'
p1631
I436
sS'bite'
p1632
I441
sS'remotely'
p1633
I128
sS'anyone'
p1634
I1681
sS'indicate'
p1635
I464
sS'draft'
p1636
I474
sS'stuffed'
p1637
I480
sS'convention'
p1638
I1685
sS'white'
p1639
I1686
sS'bits'
p1640
I1687
sS'speaking'
p1641
I1688
sS'gives'
p1642
I1689
sS'eyes'
p1643
I1690
sS'way'
p1644
I1691
sS'mostly'
p1645
I1692
sS'that'
p1646
I1693
sS'floppy'
p1647
I1694
sS'season'
p1648
I1695
sS'tuneful'
p1649
I1696
sS'accurately'
p1650
I1697
sS'boba'
p1651
I1698
sS'stylized'
p1652
I577
sS'gaudi'
p1653
I579
sS'sequels'
p1654
I977
sS'eyed'
p1655
I1702
sS'shirley'
p1656
I610
sS'junkyard'
p1657
I1704
sS'copy'
p1658
I1705
sS'undoubtedly'
p1659
I621
sS'message'
p1660
I1668
sS'boyfriend'
p1661
I1708
sS'waylaid'
p1662
I1709
sS'wide'
p1663
I641
sS'television'
p1664
I1711
sS'translate'
p1665
I3529
sS'unfortunately'
p1666
I657
sS'seuss'
p1667
I661
sS'require'
p1668
I1715
sS'handmade'
p1669
I1716
sS'needless'
p1670
I2814
sS'whom'
p1671
I4755
sS'choux'
p1672
I1718
sS'savant'
p1673
I1719
sS'ventura'
p1674
I1720
sS'future'
p1675
I707
sS'venture'
p1676
I1722
sS'were'
p1677
I1723
sS'poisoning'
p1678
I727
sS'strives'
p1679
I3532
sS'dissapointed'
p1680
I1725
sS'sublime'
p1681
I1726
sS'browser'
p1682
I1727
sS'and'
p1683
I1728
sS'coconut'
p1684
I1730
sS'tasted'
p1685
I1732
sS'nicer'
p1686
I1733
sS'acknowledged'
p1687
I1309
sS'ann'
p1688
I1736
sS'turned'
p1689
I1738
sS'locations'
p1690
I1739
sS'sad'
p1691
I1740
sS'ant'
p1692
I1741
sS'competent'
p1693
I4438
sS'say'
p1694
I1743
sS'suspense'
p1695
I1744
sS'mesquite'
p1696
I571
sS'distorted'
p1697
I1746
sS'breakfast'
p1698
I847
sS'recover'
p1699
I1748
sS'occupied'
p1700
I1749
sS'any'
p1701
I1750
sS'kevin'
p1702
I1751
sS'sat'
p1703
I1752
sS'astonishingly'
p1704
I1753
sS'form'
p1705
I1754
sS'able'
p1706
I4222
sS'allison'
p1707
I843
sS'efficient'
p1708
I1756
sS'veteran'
p1709
I904
sS'upgrading'
p1710
I1527
sS'aside'
p1711
I1760
sS'malta'
p1712
I1761
sS'terrific'
p1713
I923
sS'equipment'
p1714
I1763
sS'ideal'
p1715
I1764
sS'animation'
p1716
I935
sS'take'
p1717
I1766
sS'online'
p1718
I1767
sS'bailey'
p1719
I1768
sS'wanting'
p1720
I1203
sS'wonder'
p1721
I1906
sS'ericson'
p1722
I1771
sS'something'
p1723
I3909
sS'channel'
p1724
I1772
sS'towers'
p1725
I1773
sS'ironically'
p1726
I1774
sS'sure'
p1727
I1775
sS'multiple'
p1728
I998
sS'fundamental'
p1729
I2729
sS'theatre'
p1730
I1778
sS'normal'
p1731
I1779
sS'arguing'
p1732
I1780
sS'price'
p1733
I1781
sS'knew'
p1734
I1028
sS'clearer'
p1735
I1783
sS'paid'
p1736
I1036
sS'falls'
p1737
I1785
sS'rips'
p1738
I4508
sS'wire'
p1739
I4370
sS'tract'
p1740
I1063
sS'pair'
p1741
I1067
sS'america'
p1742
I1789
sS'arepas'
p1743
I4830
sS'forever'
p1744
I1791
sS'atrocity'
p1745
I1792
sS'especially'
p1746
I1793
sS'surprising'
p1747
I1112
sS'considered'
p1748
I1795
sS'gyro'
p1749
I1123
sS'seafood'
p1750
I725
sS'proud'
p1751
I1130
sS'hungry'
p1752
I166
sS'tooth'
p1753
I1800
sS'comparably'
p1754
I4409
sS'brushfire'
p1755
I1165
sS'voodoo'
p1756
I658
sS'professional'
p1757
I1807
sS'senior'
p1758
I1808
sS'sals'
p1759
I1809
sS'salt'
p1760
I1810
sS'review'
p1761
I1914
sS'quantity'
p1762
I1200
sS'shop'
p1763
I1813
sS'rating'
p1764
I1814
sS'madison'
p1765
I1815
sS'drastically'
p1766
I1816
sS'shot'
p1767
I1817
sS'show'
p1768
I1819
sS'hamburger'
p1769
I1821
sS'spacek'
p1770
I1822
sS'cheap'
p1771
I1823
sS'let'
p1772
I3775
sS'merit'
p1773
I1824
sS'bright'
p1774
I1825
sS'shoe'
p1775
I1280
sS'threshold'
p1776
I1827
sS'spacey'
p1777
I1828
sS'excerpts'
p1778
I1829
sS'snider'
p1779
I1830
sS'calamari'
p1780
I1301
sS'maine'
p1781
I1832
sS'ground'
p1782
I1833
sS'upgrade'
p1783
I1321
sS'ratio'
p1784
I1835
sS'title'
p1785
I1836
sS'treasure'
p1786
I1840
sS'cheeseburger'
p1787
I1841
sS'outside'
p1788
I1920
sS'texture'
p1789
I1843
sS'crime'
p1790
I1844
sS'tears'
p1791
I1380
sS'wood'
p1792
I1386
sS'black'
p1793
I1848
sS'hockey'
p1794
I1849
sS'nurse'
p1795
I1850
sS'muffin'
p1796
I1851
sS'evinced'
p1797
I1853
sS'sensitivities'
p1798
I1854
sS'boyle'
p1799
I1855
sS'pumpkin'
p1800
I1856
sS'predict'
p1801
I1857
sS'correctly'
p1802
I4384
sS'get'
p1803
I1859
sS'assistant'
p1804
I1861
sS'routine'
p1805
I1862
sS'freezing'
p1806
I1863
sS'truly'
p1807
I1864
sS'instance'
p1808
I4226
sS'outlet'
p1809
I1514
sS'lighter'
p1810
I1867
sS'dit'
p1811
I2862
sS'treachery'
p1812
I1869
sS'neither'
p1813
I4388
sS'gem'
p1814
I1871
sS'secondary'
p1815
I1872
sS'prime'
p1816
I1873
sS'regarding'
p1817
I1874
sS'car'
p1818
I3720
sS'aluminum'
p1819
I1876
sS'settings'
p1820
I61
sS'leather'
p1821
I1878
sS'outperform'
p1822
I1879
sS'bumpers'
p1823
I3553
sS'packed'
p1824
I4369
sS'summary'
p1825
I1598
sS'naked'
p1826
I1882
sS'jokes'
p1827
I1883
sS'admins'
p1828
I1884
sS'undertone'
p1829
I1613
sS'heartwarming'
p1830
I1886
sS'worries'
p1831
I1887
sS'through'
p1832
I2746
sS'buy'
p1833
I4772
sS'marred'
p1834
I1640
sS'where'
p1835
I1890
sS'functionality'
p1836
I3600
sS'husband'
p1837
I376
sS'ignored'
p1838
I1893
sS'detachable'
p1839
I3555
sS'concert'
p1840
I1895
sS'station'
p1841
I2926
sS'seat'
p1842
I1897
sS'starlet'
p1843
I1286
sS'college'
p1844
I1724
sS'anyways'
p1845
I278
sS'seal'
p1846
I1737
sS'murdered'
p1847
I4697
sS'calendar'
p1848
I1904
sS'concern'
p1849
I1770
sS'loudspeaker'
p1850
I1907
sS'clips'
p1851
I3559
sS'fails'
p1852
I1909
sS'satisfying'
p1853
I1910
sS'decidely'
p1854
I1911
sS'paired'
p1855
I3560
sS'ways'
p1856
I1912
sS'crawfish'
p1857
I1805
sS'fascinated'
p1858
I1811
sS'hybrid'
p1859
I4574
sS'sites'
p1860
I1916
sS'colours'
p1861
I1918
sS'behing'
p1862
I1919
sS'enough'
p1863
I1842
sS'chewy'
p1864
I1921
sS'between'
p1865
I1922
sS'nicest'
p1866
I1923
sS'reading'
p1867
I1924
sS'across'
p1868
I1925
sS'arrival'
p1869
I1927
sS'matrix'
p1870
I4060
sS'notice'
p1871
I1929
sS'jobs'
p1872
I1930
sS'cocktails'
p1873
I1931
sS'eye'
p1874
I2603
sS'spring'
p1875
I3419
sS'replacement'
p1876
I4647
sS'foreigner'
p1877
I1759
sS'killing'
p1878
I1934
sS'blame'
p1879
I1935
sS'continuously'
p1880
I3565
sS'concentrate'
p1881
I1937
sS'awards'
p1882
I1938
sS'menacing'
p1883
I1939
sS'article'
p1884
I135
sS'wienerschnitzel'
p1885
I1980
sS'come'
p1886
I1942
sS'coupons'
p1887
I1943
sS'motivations'
p1888
I1945
sS'deliciously'
p1889
I1946
sS'dates'
p1890
I1947
sS'austere'
p1891
I4039
sS'talented'
p1892
I1948
sS'many'
p1893
I1949
sS'megapixels'
p1894
I1950
sS'ineptly'
p1895
I1951
sS'quiet'
p1896
I1952
sS'contract'
p1897
I1953
sS'called'
p1898
I3569
sS'prompted'
p1899
I4750
sS's'
I1955
sS'loudly'
p1900
I1956
sS'disappointment'
p1901
I1957
sS'plantains'
p1902
I1337
sS'avoided'
p1903
I4193
sS'expression'
p1904
I1960
sS'comes'
p1905
I1961
sS'among'
p1906
I1963
sS'flavorless'
p1907
I3187
sS'color'
p1908
I1965
sS'continuation'
p1909
I1966
sS'period'
p1910
I1967
sS'inexplicable'
p1911
I1968
sS'exploit'
p1912
I1969
sS'anti'
p1913
I1970
sS'babbling'
p1914
I1971
sS'aerial'
p1915
I1972
sS'nicola'
p1916
I1973
sS'crew'
p1917
I1974
sS'considers'
p1918
I1976
sS'caring'
p1919
I315
sS'survivors'
p1920
I1978
sS'arts'
p1921
I1979
sS'teddy'
p1922
I1981
sS'stretch'
p1923
I1982
sS'camelback'
p1924
I1983
sS'mark'
p1925
I1984
sS'jerks'
p1926
I1985
sS'defined'
p1927
I3577
sS'wobbly'
p1928
I1989
sS'unlockable'
p1929
I1990
sS'judging'
p1930
I1991
sS'understated'
p1931
I1992
sS'jerky'
p1932
I1993
sS'hardly'
p1933
I1994
sS'mary'
p1934
I1995
sS'peaking'
p1935
I1996
sS'direction'
p1936
I1997
sS'shortlist'
p1937
I1998
sS'shopping'
p1938
I1999
sS'tasteless'
p1939
I2000
sS'ala'
p1940
I2835
sS'thousand'
p1941
I2002
sS'hits'
p1942
I3098
sS'sort'
p1943
I3850
sS'dramatic'
p1944
I2006
sS'wake'
p1945
I2007
sS'proven'
p1946
I199
sS'satisifed'
p1947
I2009
sS'undercooked'
p1948
I751
sS'calligraphy'
p1949
I1367
sS'dribble'
p1950
I2013
sS'those'
p1951
I2014
sS'stinker'
p1952
I2015
sS'sound'
p1953
I2016
sS'char'
p1954
I3582
sS'myself'
p1955
I2017
sS'disconnected'
p1956
I2019
sS'these'
p1957
I2020
sS'might'
p1958
I2772
sS'cash'
p1959
I2022
sS'cast'
p1960
I2023
sS'warning'
p1961
I3584
sS'shall'
p1962
I3445
sS'joke'
p1963
I4414
sS'thrillers'
p1964
I2027
sS'situation'
p1965
I2028
sS'shops'
p1966
I2029
sS'novella'
p1967
I2030
sS'bop'
p1968
I2031
sS'unsatisfactory'
p1969
I2033
sS'punches'
p1970
I2034
sS'bathrooms'
p1971
I2035
sS'acclaimed'
p1972
I2036
sS'shepard'
p1973
I2037
sS'eventually'
p1974
I2038
sS'intoning'
p1975
I2039
sS'sincere'
p1976
I1905
sS'candace'
p1977
I2042
sS'latifa'
p1978
I1806
sS'according'
p1979
I2044
sS'couples'
p1980
I345
sS'blah'
p1981
I2046
sS'someone'
p1982
I2047
sS'punched'
p1983
I2048
sS'clip'
p1984
I4194
sS'sprouts'
p1985
I2049
sS'heels'
p1986
I2050
sS'technology'
p1987
I2051
sS'everyday'
p1988
I2052
sS'worry'
p1989
I2053
sS'movements'
p1990
I2054
sS'pap'
p1991
I2055
sS'creaks'
p1992
I2056
sS'pastas'
p1993
I2026
sS'perhaps'
p1994
I4517
sS'develop'
p1995
I2058
sS'considerable'
p1996
I3548
sS'author'
p1997
I2060
sS'ericsson'
p1998
I1144
sS'granted'
p1999
I2062
sS'reminded'
p2000
I2063
sS'sketchy'
p2001
I2064
sS'same'
p2002
I2065
sS'trip'
p2003
I2066
sS'food'
p2004
I2776
sS'pad'
p2005
I2068
sS'otto'
p2006
I2070
sS'cannoli'
p2007
I2777
sS'stepped'
p2008
I2073
sS'physical'
p2009
I2074
sS'heche'
p2010
I2075
sS'events'
p2011
I2076
sS'pan'
p2012
I2077
sS'atleast'
p2013
I4421
sS'week'
p2014
I2079
sS'visually'
p2015
I2080
sS'finish'
p2016
I342
sS'palance'
p2017
I2083
sS'see'
p2018
I3124
sS'enjoyment'
p2019
I2084
sS'genius'
p2020
I4380
sS'remake'
p2021
I1959
sS'muffled'
p2022
I2085
sS'producers'
p2023
I881
sS'average'
p2024
I1797
sS'running'
p2025
I2088
sS'harris'
p2026
I2089
sS'wired'
p2027
I2090
sS'delicate'
p2028
I2091
sS'changing'
p2029
I2093
sS'anticipated'
p2030
I2238
sS'totally'
p2031
I2095
sS'cartoon'
p2032
I2096
sS'enchanting'
p2033
I2097
sS'complained'
p2034
I2098
sS'drain'
p2035
I2100
sS'theater'
p2036
I2101
sS'largely'
p2037
I2102
sS'charges'
p2038
I2103
sS'charger'
p2039
I2104
sS'ranch'
p2040
I1962
sS'magical'
p2041
I2107
sS'pacing'
p2042
I3385
sS'ringer'
p2043
I4196
sS'severe'
p2044
I2109
sS'costs'
p2045
I2110
sS'flakes'
p2046
I1471
sS'relief'
p2047
I2112
sS'puree'
p2048
I2113
sS'communications'
p2049
I3400
sS'vomit'
p2050
I2783
sS'model'
p2051
I2115
sS'otherwise'
p2052
I4427
sS'amazed'
p2053
I2117
sS'charged'
p2054
I2118
sS'schoolers'
p2055
I2119
sS'morons'
p2056
I2120
sS'outdoor'
p2057
I2121
sS'being'
p2058
I2122
sS'captures'
p2059
I679
sS'classical'
p2060
I4653
sS'exaggerating'
p2061
I2124
sS'crepe'
p2062
I4167
sS'actions'
p2063
I156
sS'slimy'
p2064
I2127
sS'kill'
p2065
I2128
sS'showed'
p2066
I2129
sS'aspect'
p2067
I2130
sS'melville'
p2068
I3410
sS'touch'
p2069
I2131
sS'flavor'
p2070
I2132
sS'speed'
p2071
I2133
sS'captured'
p2072
I2134
sS'halfway'
p2073
I2135
sS'blow'
p2074
I2136
sS'death'
p2075
I2137
sS'excuses'
p2076
I3598
sS'thinking'
p2077
I2139
sS'ordered'
p2078
I3573
sS'seems'
p2079
I2140
sS'except'
p2080
I2141
sS'improvement'
p2081
I2142
sS'meteorite'
p2082
I2143
sS'lets'
p2083
I2144
sS'falsely'
p2084
I634
sS'pile'
p2085
I2146
sS'subtitles'
p2086
I2790
sS'insulin'
p2087
I3798
sS'reach'
p2088
I3012
sS'extensive'
p2089
I797
sS'sucked'
p2090
I2791
sS'elaborately'
p2091
I2153
sS'momentum'
p2092
I2154
sS'styles'
p2093
I2155
sS'moz'
p2094
I2156
sS'starving'
p2095
I2157
sS'aspects'
p2096
I2158
sS'around'
p2097
I2159
sS'desperately'
p2098
I2160
sS'read'
p2099
I2161
sS'papers'
p2100
I1614
sS'sause'
p2101
I2163
sS'early'
p2102
I2165
sS'curry'
p2103
I2166
sS'traffic'
p2104
I2167
sS'darn'
p2105
I2168
sS'listening'
p2106
I2169
sS'using'
p2107
I2170
sS'breakage'
p2108
I2171
sS'walk'
p2109
I4436
sS'lady'
p2110
I2106
sS'grim'
p2111
I2173
sS'diaper'
p2112
I1812
sS'adams'
p2113
I2176
sS'stranger'
p2114
I2177
sS'crostini'
p2115
I2178
sS'collective'
p2116
I2179
sS'serves'
p2117
I2180
sS'server'
p2118
I2181
sS'discarded'
p2119
I2182
sS'audience'
p2120
I2183
sS'maker'
p2121
I3805
sS'blackberry'
p2122
I468
sS'fully'
p2123
I2185
sS'served'
p2124
I2186
sS'attempting'
p2125
I4373
sS'trying'
p2126
I2324
sS'sharp'
p2127
I2675
sS'seating'
p2128
I3002
sS'debut'
p2129
I2188
sS'rpg'
p2130
I4354
sS'verbal'
p2131
I2190
sS'naan'
p2132
I2191
sS'meanders'
p2133
I2192
sS'loyalty'
p2134
I3666
sS'lobster'
p2135
I2193
sS'table'
p2136
I2561
sS'images'
p2137
I2196
sS'diving'
p2138
I2197
sS'racial'
p2139
I2198
sS'redeeming'
p2140
I2200
sS'energetic'
p2141
I2202
sS'provided'
p2142
I2203
sS'tastings'
p2143
I2204
sS'phoenix'
p2144
I2205
sS'confirm'
p2145
I2207
sS'drenched'
p2146
I991
sS'highest'
p2147
I2209
sS'fondue'
p2148
I2210
sS'overly'
p2149
I2211
sS'unmatched'
p2150
I1181
sS'charismatic'
p2151
I2213
sS'tots'
p2152
I4342
sS'favourite'
p2153
I3610
sS'critical'
p2154
I2216
sS'watkins'
p2155
I4444
sS'provides'
p2156
I2218
sS'sliced'
p2157
I2219
sS'willie'
p2158
I2221
sS'director'
p2159
I2875
sS'considering'
p2160
I1977
sS'welcome'
p2161
I31
sS'roast'
p2162
I584
sS'power'
p2163
I2225
sS'vivian'
p2164
I2226
sS'seconds'
p2165
I2227
sS'rancheros'
p2166
I2228
sS'donlevy'
p2167
I2229
sS'communicate'
p2168
I2230
sS'olives'
p2169
I2231
sS'loudest'
p2170
I2232
sS'uneasy'
p2171
I1230
sS'despicable'
p2172
I2234
sS'display'
p2173
I4812
sS'innocence'
p2174
I2235
sS'throwback'
p2175
I2236
sS'leftover'
p2176
I2237
sS'anatomist'
p2177
I1941
sS'stereotypes'
p2178
I2240
sS'frenchman'
p2179
I965
sS'manufacturer'
p2180
I2242
sS'on'
p2181
I2243
sS'ok'
p2182
I2245
sS'origins'
p2183
I2246
sS'oh'
p2184
I2247
sS'of'
p2185
I2248
sS'industry'
p2186
I2249
sS'violence'
p2187
I2250
sS'favorite'
p2188
I2251
sS'inviting'
p2189
I1634
sS'panna'
p2190
I779
sS'practical'
p2191
I2254
sS'tremendous'
p2192
I4447
sS'fell'
p2193
I145
sS'stand'
p2194
I2257
sS'pockets'
p2195
I2258
sS'act'
p2196
I2194
sS'mixed'
p2197
I2260
sS'donut'
p2198
I2261
sS'bond'
p2199
I2149
sS'os'
p2200
I2263
sS'or'
p2201
I2264
sS'road'
p2202
I2265
sS'allowing'
p2203
I3619
sS'havilland'
p2204
I2267
sS'heavy'
p2205
I2808
sS'ladies'
p2206
I2269
sS'flawed'
p2207
I2271
sS'coupon'
p2208
I2272
sS'instruments'
p2209
I1018
sS'skilled'
p2210
I2274
sS'flavors'
p2211
I2275
sS'officially'
p2212
I2278
sS'references'
p2213
I2279
sS'cent'
p2214
I4452
sS'apologize'
p2215
I1347
sS'burton'
p2216
I2283
sS'portrayal'
p2217
I2284
sS'conceptually'
p2218
I2285
sS'your'
p2219
I2286
sS'technically'
p2220
I2287
sS'buds'
p2221
I2288
sS'needlessly'
p2222
I2289
sS'grates'
p2223
I2290
sS'forwarded'
p2224
I2292
sS'prepare'
p2225
I1803
sS'area'
p2226
I2294
sS'removing'
p2227
I2295
sS'there'
p2228
I2296
sS'styling'
p2229
I874
sS'restrained'
p2230
I2298
sS'strip'
p2231
I2282
sS'los'
p2232
I2299
sS'low'
p2233
I2301
sS'stars'
p2234
I2302
sS'house'
p2235
I2815
sS'hellish'
p2236
I2304
sS'lox'
p2237
I2305
sS'valley'
p2238
I4172
sS'energy'
p2239
I2816
sS'chalkboard'
p2240
I4457
sS'media'
p2241
I2730
sS'spicy'
p2242
I1868
sS'handsfree'
p2243
I2310
sS'verbatim'
p2244
I2311
sS'drains'
p2245
I2312
sS'lane'
p2246
I3628
sS'sophisticated'
p2247
I2316
sS'wiping'
p2248
I2317
sS'keira'
p2249
I2318
sS'ended'
p2250
I4340
sS'gore'
p2251
I2320
sS'survived'
p2252
I2321
sS'upbeat'
p2253
I4458
sS'unreliable'
p2254
I2323
sS'promote'
p2255
I1226
sS'with'
p2256
I2325
sS'cords'
p2257
I2326
sS'buying'
p2258
I2327
sS'happening'
p2259
I2328
sS'football'
p2260
I2781
sS'pull'
p2261
I2330
sS'romantic'
p2262
I4335
sS'embedded'
p2263
I2333
sS'hiro'
p2264
I2334
sS'temperaments'
p2265
I2335
sS'strawberry'
p2266
I2337
sS'jamaican'
p2267
I3665
sS'dirty'
p2268
I2339
sS'tones'
p2269
I2340
sS'site'
p2270
I4505
sS'grasp'
p2271
I2341
sS'gibberish'
p2272
I2342
sS'politically'
p2273
I2343
sS'builders'
p2274
I2344
sS'agree'
p2275
I2345
sS'expect'
p2276
I2822
sS'detailed'
p2277
I2347
sS'toilet'
p2278
I2348
sS'ac'
p2279
I2349
sS'taylor'
p2280
I2350
sS'ad'
p2281
I2351
sS'videos'
p2282
I2352
sS'cinema'
p2283
I2353
sS'taste'
p2284
I2354
sS'pseudo'
p2285
I1190
sS'accents'
p2286
I2356
sS'stealing'
p2287
I1193
sS'moved'
p2288
I1189
sS'macbeth'
p2289
I2359
sS'deep'
p2290
I2360
sS'an'
p2291
I2361
sS'cbr'
p2292
I2362
sS'imagination'
p2293
I2363
sS'as'
p2294
I2364
sS'reliability'
p2295
I2365
sS'tasty'
p2296
I2366
sS'daily'
p2297
I1838
sS'file'
p2298
I2368
sS'girlfriend'
p2299
I2369
sS'watched'
p2300
I2370
sS'pedestal'
p2301
I2371
sS'az'
p2302
I3765
sS'cables'
p2303
I2373
sS'spends'
p2304
I2374
sS'film'
p2305
I2375
sS'fill'
p2306
I2376
sS'again'
p2307
I2377
sS'unwelcome'
p2308
I2378
sS'receive'
p2309
I3790
sS'verizon'
p2310
I4466
sS'idiot'
p2311
I2381
sS'cradles'
p2312
I2922
sS'storage'
p2313
I2382
sS'rubber'
p2314
I2385
sS'tight'
p2315
I2386
sS'astronaut'
p2316
I2387
sS'underwater'
p2317
I4400
sS'george'
p2318
I4397
sS'igo'
p2319
I2388
sS'you'
p2320
I2390
sS'trash'
p2321
I2391
sS'offered'
p2322
I2392
sS'disgraceful'
p2323
I2393
sS'poor'
p2324
I2394
sS'requested'
p2325
I2395
sS'poop'
p2326
I2396
sS'hey'
p2327
I2297
sS'obsessed'
p2328
I4846
sS'students'
p2329
I2400
sS'spoilers'
p2330
I2401
sS'forgettable'
p2331
I2402
sS'finale'
p2332
I2403
sS'drift'
p2333
I2404
sS'peas'
p2334
I2405
sS'includes'
p2335
I2406
sS'important'
p2336
I2407
sS'track'
p2337
I2408
sS'hairsplitting'
p2338
I2409
sS'coverage'
p2339
I2410
sS'fresh'
p2340
I3645
sS'included'
p2341
I2412
sS'decorated'
p2342
I2413
sS'awkwardly'
p2343
I2414
sS'legal'
p2344
I2415
sS'tricky'
p2345
I2416
sS'carbs'
p2346
I2417
sS'studio'
p2347
I2418
sS'applause'
p2348
I2419
sS'calls'
p2349
I2420
sS'wife'
p2350
I2421
sS'values'
p2351
I3760
sS'unmitigated'
p2352
I1346
sS'curve'
p2353
I2423
sS'barcelona'
p2354
I206
sS'sounded'
p2355
I2425
sS'boogeyman'
p2356
I2426
sS'sewer'
p2357
I2427
sS'u'
I2428
sS'paced'
p2358
I2429
sS'sensibility'
p2359
I2431
sS'overdue'
p2360
I2138
sS'resolution'
p2361
I2433
sS'original'
p2362
I2434
sS'attentive'
p2363
I2435
sS'nimoy'
p2364
I1570
sS'untoasted'
p2365
I2437
sS'all'
p2366
I2438
sS'sci'
p2367
I2439
sS'consider'
p2368
I1975
sS'ceases'
p2369
I18
sS'caused'
p2370
I2443
sS'beware'
p2371
I2444
sS'allergy'
p2372
I35
sS'dollar'
p2373
I2446
sS'weariness'
p2374
I2447
sS'devine'
p2375
I1860
sS'concept'
p2376
I2449
sS'smoking'
p2377
I4476
sS'dish'
p2378
I2450
sS'follow'
p2379
I2451
sS'decisions'
p2380
I2452
sS'extant'
p2381
I2010
sS'emily'
p2382
I2454
sS'content'
p2383
I394
sS'condescends'
p2384
I2456
sS'careful'
p2385
I2011
sS'number'
p2386
I2900
sS'wish'
p2387
I4798
sS'peeling'
p2388
I3940
sS'tv'
p2389
I2458
sS'switched'
p2390
I2460
sS'extraneous'
p2391
I2461
sS'sashimi'
p2392
I1820
sS'to'
p2393
I2463
sS'program'
p2394
I2464
sS'elias'
p2395
I2466
sS'th'
p2396
I2467
sS'dressing'
p2397
I186
sS'smile'
p2398
I2469
sS'inconspicuous'
p2399
I4480
sS'presentation'
p2400
I2470
sS'ta'
p2401
I2471
sS'case'
p2402
I2472
sS'resounding'
p2403
I2473
sS'unsatisfying'
p2404
I238
sS'returned'
p2405
I2475
sS'sitting'
p2406
I248
sS'very'
p2407
I2477
sS'horror'
p2408
I2478
sS'fav'
p2409
I2479
sS'documentaries'
p2410
I271
sS'fan'
p2411
I296
sS'decide'
p2412
I306
sS'got'
p2413
I400
sS'awful'
p2414
I2484
sS'sony'
p2415
I2485
sS'difference'
p2416
I2486
sS'ticker'
p2417
I2487
sS'securely'
p2418
I2488
sS'common'
p2419
I4078
sS'delivery'
p2420
I4782
sS'enjoyable'
p2421
I3659
sS'heaven'
p2422
I2491
sS'washing'
p2423
I2492
sS'unlike'
p2424
I4484
sS'cable'
p2425
I2493
sS'shenanigans'
p2426
I2494
sS'judith'
p2427
I1087
sS'celebrity'
p2428
I90
sS'list'
p2429
I2497
sS'riveted'
p2430
I3056
sS'ri'
p2431
I2500
sS'large'
p2432
I2501
sS'sand'
p2433
I2503
sS'mile'
p2434
I2504
sS'steakhouse'
p2435
I2505
sS'filling'
p2436
I2506
sS'plain'
p2437
I4485
sS'small'
p2438
I2507
sS'earbuds'
p2439
I2508
sS'vanilla'
p2440
I4486
sS'flick'
p2441
I2509
sS'mishima'
p2442
I2510
sS'owned'
p2443
I4122
sS'quicker'
p2444
I2511
sS'neighborhood'
p2445
I2512
sS'portable'
p2446
I2513
sS'ten'
p2447
I2514
sS'tea'
p2448
I2515
sS'tardis'
p2449
I487
sS'heist'
p2450
I2496
sS'unethical'
p2451
I3507
sS'translating'
p2452
I2519
sS'burger'
p2453
I2520
sS'rate'
p2454
I506
sS'design'
p2455
I2522
sS'further'
p2456
I2523
sS'choices'
p2457
I4490
sS'investment'
p2458
I2525
sS'what'
p2459
I2526
sS'stood'
p2460
I2527
sS'sub'
p2461
I2528
sS'nano'
p2462
I2529
sS'clock'
p2463
I2530
sS'deeply'
p2464
I591
sS'sum'
p2465
I2532
sS'drifting'
p2466
I2856
sS'crust'
p2467
I2534
sS'brief'
p2468
I2535
sS'emotions'
p2469
I2536
sS'version'
p2470
I2538
sS'attitudes'
p2471
I630
sS'reboots'
p2472
I635
sS'dracula'
p2473
I2541
sS'tribute'
p2474
I1606
sS'row'
p2475
I2543
sS'public'
p2476
I2544
sS'contrast'
p2477
I2545
sS'revealing'
p2478
I2546
sS'outgoing'
p2479
I2547
sS'full'
p2480
I2548
sS'unprofessional'
p2481
I712
sS'loose'
p2482
I2550
sS'ballet'
p2483
I1407
sS'jonah'
p2484
I2552
sS'artless'
p2485
I2222
sS'assante'
p2486
I2482
sS'filmography'
p2487
I2555
sS'decay'
p2488
I4416
sS'trunk'
p2489
I2556
sS'directions'
p2490
I2557
sS'buzzing'
p2491
I2559
sS'strong'
p2492
I2560
sS'respect'
p2493
I4442
sS'tragedy'
p2494
I2024
sS'bible'
p2495
I2566
sS'ridiculous'
p2496
I1701
sS'ahead'
p2497
I2568
sS'houses'
p2498
I3161
sS'don'
p2499
I3545
sS'inspired'
p2500
I1758
sS'razr'
p2501
I2571
sS'allows'
p2502
I832
sS'brutal'
p2503
I840
sS'pics'
p2504
I2574
sS'whiny'
p2505
I2575
sS'thoroughly'
p2506
I3341
sS'amount'
p2507
I2576
sS'laughing'
p2508
I2184
sS'milkshake'
p2509
I2577
sS'horrified'
p2510
I2578
sS'shocked'
p2511
I2579
sS'social'
p2512
I2580
sS'action'
p2513
I2581
sS'murdering'
p2514
I2582
sS'luck'
p2515
I2262
sS'options'
p2516
I2583
sS'bodes'
p2517
I2584
sS'hayworth'
p2518
I2585
sS'via'
p2519
I2586
sS'followed'
p2520
I2587
sS'goalies'
p2521
I2588
sS'family'
p2522
I2589
sS'ive'
p2523
I2590
sS'suddenly'
p2524
I2591
sS'africa'
p2525
I2592
sS'bordered'
p2526
I626
sS'excellently'
p2527
I964
sS'ask'
p2528
I2595
sS'indoors'
p2529
I976
sS'thought'
p2530
I4559
sS'hooked'
p2531
I2598
sS'pulls'
p2532
I2599
sS'actress'
p2533
I3088
sS'gosh'
p2534
I2600
sS'establish'
p2535
I2601
sS'helms'
p2536
I4695
sS'ringing'
p2537
I4500
sS'flaws'
p2538
I1039
sS'khao'
p2539
I1042
sS'former'
p2540
I2462
sS'contains'
p2541
I1058
sS'petroleum'
p2542
I2606
sS'charge'
p2543
I1233
sS'pears'
p2544
I2608
sS'unrecognizable'
p2545
I2609
sS'lassie'
p2546
I2610
sS'taken'
p2547
I2611
sS'tacky'
p2548
I2612
sS'greasy'
p2549
I3709
sS'twists'
p2550
I2040
sS'minor'
p2551
I2616
sS'pixar'
p2552
I1372
sS'teen'
p2553
I2618
sS'flat'
p2554
I2619
sS'flaw'
p2555
I2620
sS'door'
p2556
I2148
sS'knows'
p2557
I2622
sS'portrayals'
p2558
I2624
sS'hoffman'
p2559
I1163
sS'owners'
p2560
I2876
sS'telephone'
p2561
I2043
sS'discovering'
p2562
I272
sS'flag'
p2563
I2628
sS'basically'
p2564
I2629
sS'regrettably'
p2565
I851
sS'particular'
p2566
I2631
sS'known'
p2567
I2632
sS'mellow'
p2568
I2633
sS'hurry'
p2569
I2634
sS'ridiculousness'
p2570
I3683
sS'glad'
p2571
I2637
sS'town'
p2572
I2638
sS'ribeye'
p2573
I2045
sS'keeping'
p2574
I1248
sS'thread'
p2575
I2879
sS'hour'
p2576
I2642
sS'middle'
p2577
I2643
sS'recall'
p2578
I1944
sS'shelves'
p2579
I2645
sS'thumper'
p2580
I1289
sS'roosevelt'
p2581
I2647
sS'guards'
p2582
I2648
sS'mall'
p2583
I1302
sS'sudden'
p2584
I2650
sS'del'
p2585
I984
sS'sent'
p2586
I3686
sS'greeted'
p2587
I1031
sS'learn'
p2588
I2654
sS'knocked'
p2589
I2655
sS'overwrought'
p2590
I1239
sS'nobu'
p2591
I2657
sS'dee'
p2592
I1344
sS'def'
p2593
I2659
sS'history'
p2594
I2660
sS'beautiful'
p2595
I2661
sS'purchases'
p2596
I2662
sS'diabetic'
p2597
I4815
sS'atrocious'
p2598
I1360
sS'stated'
p2599
I2666
sS'final'
p2600
I4153
sS'lightweight'
p2601
I4511
sS'suggestions'
p2602
I1400
sS'accept'
p2603
I2668
sS'sphere'
p2604
I1447
sS'downloading'
p2605
I2670
sS'protects'
p2606
I2671
sS'imitation'
p2607
I1436
sS'purchased'
p2608
I2673
sS'sense'
p2609
I2674
sS'phrase'
p2610
I220
sS'disliked'
p2611
I1456
sS'earpiece'
p2612
I2677
sS'huge'
p2613
I2678
sS'needs'
p2614
I2679
sS'court'
p2615
I2680
sS'bat'
p2616
I4011
sS'awkward'
p2617
I1496
sS'desperation'
p2618
I1501
sS'rather'
p2619
I2684
sS'heroine'
p2620
I2685
sS'comfort'
p2621
I1517
sS'thumbs'
p2622
I2687
sS'att'
p2623
I2688
sS'stayed'
p2624
I2689
sS'fame'
p2625
I2690
sS'menus'
p2626
I2691
sS'occasionally'
p2627
I2692
sS'pleather'
p2628
I2693
sS'prejudice'
p2629
I2886
sS'explains'
p2630
I2696
sS'goat'
p2631
I2697
sS'credible'
p2632
I3493
sS'creature'
p2633
I2698
sS'schultz'
p2634
I2699
sS'sandwich'
p2635
I2700
sS'okay'
p2636
I1596
sS'tried'
p2637
I389
sS'rude'
p2638
I2857
sS'flip'
p2639
I4801
sS'fx'
p2640
I2704
sS'treatments'
p2641
I197
sS'questioning'
p2642
I2706
sS'soundtrack'
p2643
I2707
sS'replace'
p2644
I3617
sS'sven'
p2645
I1541
sS'plane'
p2646
I2709
sS'lighting'
p2647
I2710
sS'floor'
p2648
I2105
sS'primal'
p2649
I4734
sS'coming'
p2650
I2712
sS'ironman'
p2651
I1665
sS'sloppy'
p2652
I2714
sS'brigand'
p2653
I1677
sS'fm'
p2654
I2716
sS'proclaimed'
p2655
I2717
sS'fo'
p2656
I2718
sS'a'
I2719
sS'contrived'
p2657
I2720
sS'refuse'
p2658
I2721
sS'short'
p2659
I2722
sS'contributory'
p2660
I4468
sS'register'
p2661
I1731
sS'rowdy'
p2662
I1735
sS'overnight'
p2663
I2725
sS'anytime'
p2664
I2726
sS'coal'
p2665
I1755
sS'eating'
p2666
I3758
sS'halibut'
p2667
I1777
sS'overcooked'
p2668
I1734
sS'caballero'
p2669
I2731
sS'pleasure'
p2670
I2732
sS'egg'
p2671
I1796
sS'playing'
p2672
I2735
sS'patio'
p2673
I2736
sS'pans'
p2674
I2737
sS'rocketed'
p2675
I2738
sS'mexican'
p2676
I2739
sS'help'
p2677
I2740
sS'conversation'
p2678
I4103
sS'essence'
p2679
I2741
sS'soon'
p2680
I2742
sS'installed'
p2681
I2743
sS'performance'
p2682
I1769
sS'already'
p2683
I213
sS'dough'
p2684
I1888
sS'signs'
p2685
I2747
sS'refried'
p2686
I2748
sS'pretext'
p2687
I1903
sS'smiling'
p2688
I2750
sS'cheated'
p2689
I2751
sS'its'
p2690
I2752
sS'dont'
p2691
I2895
sS'member'
p2692
I4522
sS'style'
p2693
I1933
sS'comedic'
p2694
I2756
sS'rapidly'
p2695
I1940
sS'pray'
p2696
I2759
sS'pcs'
p2697
I2760
sS'solving'
p2698
I2761
sS'complex'
p2699
I2762
sS'handheld'
p2700
I2763
sS'actually'
p2701
I2764
sS'late'
p2702
I2765
sS'scot'
p2703
I1988
sS'messes'
p2704
I2767
sS'stephen'
p2705
I2768
sS'peanuts'
p2706
I2769
sS'cutie'
p2707
I2771
sS'sauce'
p2708
I2021
sS'colleague'
p2709
I2773
sS'insane'
p2710
I4114
sS'evening'
p2711
I183
sS'return'
p2712
I2775
sS'than'
p2713
I1707
sS'grip'
p2714
I3342
sS'ya'
p2715
I2067
sS'sucker'
p2716
I2071
sS'gadget'
p2717
I2778
sS'males'
p2718
I2779
sS'veggie'
p2719
I2175
sS'jutland'
p2720
I2908
sS'walls'
p2721
I2782
sS'olivia'
p2722
I2114
sS'hoot'
p2723
I2784
sS'foot'
p2724
I2786
sS'ninja'
p2725
I2787
sS'linking'
p2726
I2902
sS'complain'
p2727
I2789
sS'bigger'
p2728
I2199
sS'instructions'
p2729
I2152
sS'scares'
p2730
I4669
sS'peculiarity'
p2731
I815
sS'gets'
p2732
I4530
sS'meld'
p2733
I4658
sS'fantasy'
p2734
I2793
sS'sundays'
p2735
I2794
sS'occasions'
p2736
I517
sS'loosely'
p2737
I2796
sS'denny'
p2738
I2797
sS'capability'
p2739
I2798
sS'tear'
p2740
I2799
sS'stopped'
p2741
I2800
sS'cramming'
p2742
I2801
sS'turns'
p2743
I1264
sS'found'
p2744
I2803
sS'shocking'
p2745
I1641
sS'biscuits'
p2746
I2805
sS'trailer'
p2747
I2806
sS'flashbacks'
p2748
I2268
sS'reactions'
p2749
I2809
sS'everyone'
p2750
I2810
sS'neil'
p2751
I2811
sS'upstairs'
p2752
I2812
sS'weight'
p2753
I2813
sS'noble'
p2754
I2758
sS'colder'
p2755
I2303
sS'fish'
p2756
I2307
sS'hard'
p2757
I2817
sS'idea'
p2758
I2818
sS'suprised'
p2759
I2819
sS'engaging'
p2760
I2820
sS'bela'
p2761
I4615
sS'oil'
p2762
I1101
sS'connect'
p2763
I2346
sS'personable'
p2764
I2562
sS'loops'
p2765
I2824
sS'operation'
p2766
I2825
sS'beyond'
p2767
I2379
sS'event'
p2768
I2164
sS'really'
p2769
I2828
sS'specials'
p2770
I2829
sS'lovers'
p2771
I2069
sS'missed'
p2772
I2831
sS'wondered'
p2773
I2832
sS'robert'
p2774
I2108
sS'since'
p2775
I2834
sS'hilt'
p2776
I2836
sS'research'
p2777
I2837
sS'mains'
p2778
I2838
sS'acting'
p2779
I2839
sS'meaning'
p2780
I3618
sS'dominated'
p2781
I2841
sS'hill'
p2782
I2842
sS'shipment'
p2783
I2843
sS'paradise'
p2784
I2844
sS'print'
p2785
I2845
sS'dysfunction'
p2786
I2846
sS'issue'
p2787
I2847
sS'occurs'
p2788
I2848
sS'ass'
p2789
I2849
sS'expansive'
p2790
I2851
sS'drink'
p2791
I2852
sS'downs'
p2792
I2853
sS'bully'
p2793
I2854
sS'pathetic'
p2794
I2855
sS'dirt'
p2795
I1343
sS'vibe'
p2796
I3959
sS'story'
p2797
I2859
sS'pub'
p2798
I2860
sS'pleasant'
p2799
I2861
sS'extraordinary'
p2800
I2569
sS'reason'
p2801
I2863
sS'members'
p2802
I2865
sS'imagine'
p2803
I2866
sS'backed'
p2804
I859
sS'matthews'
p2805
I2868
sS'laughable'
p2806
I2869
sS'beginning'
p2807
I2871
sS'guy'
p2808
I2872
sS'pur'
p2809
I2873
sS'thrown'
p2810
I2874
sS'plantronics'
p2811
I2086
sS'unique'
p2812
I925
sS'bring'
p2813
I4283
sS'carrell'
p2814
I2918
sS'underwhelming'
p2815
I2641
sS'transceiver'
p2816
I2087
sS'airport'
p2817
I2880
sS'omit'
p2818
I2663
sS'terrible'
p2819
I2882
sS'terribly'
p2820
I2883
sS'american'
p2821
I2884
sS'fruit'
p2822
I2885
sS'expecting'
p2823
I2694
sS'eel'
p2824
I2888
sS'local'
p2825
I4311
sS'existential'
p2826
I2889
sS'blush'
p2827
I2890
sS'takeout'
p2828
I2891
sS'major'
p2829
I2892
sS'smoother'
p2830
I2893
sS'drooling'
p2831
I2894
sS'unhealthy'
p2832
I2753
sS'feel'
p2833
I2896
sS'relate'
p2834
I2897
sS'reflected'
p2835
I1790
sS'shameful'
p2836
I2384
sS'valentine'
p2837
I2788
sS'unaccompanied'
p2838
I2309
sS'sisters'
p2839
I4548
sS'pop'
p2840
I2904
sS'droid'
p2841
I1283
sS'done'
p2842
I2906
sS'elk'
p2843
I2907
sS'climbing'
p2844
I2909
sS'bland'
p2845
I2910
sS'miss'
p2846
I2911
sS'razor'
p2847
I2914
sS'horse'
p2848
I2372
sS'heads'
p2849
I2916
sS'guest'
p2850
I2917
sS'jet'
p2851
I2878
sS'indulgent'
p2852
I2881
sS'gourmet'
p2853
I2920
sS'leading'
p2854
I2921
sS'brisket'
p2855
I1049
sS'least'
p2856
I2923
sS'paint'
p2857
I2924
sS'flimsy'
p2858
I2925
sS'spock'
p2859
I1603
sS'noticed'
p2860
I4762
sS'storm'
p2861
I419
sS'dealing'
p2862
I2929
sS'master'
p2863
I2930
sS'hundred'
p2864
I2931
sS'banana'
p2865
I2933
sS'store'
p2866
I2934
sS'listed'
p2867
I2935
sS'surefire'
p2868
I3728
sS'passed'
p2869
I2928
sS'relationship'
p2870
I2938
sS'behind'
p2871
I2939
sS'month'
p2872
I2448
sS'wildly'
p2873
I2244
sS'park'
p2874
I2941
sS'excels'
p2875
I2942
sS'mmmm'
p2876
I2943
sS'tracking'
p2877
I2593
sS'cheekbones'
p2878
I2945
sS'sign'
p2879
I1290
sS'endlessly'
p2880
I2947
sS'inflate'
p2881
I1240
sS'grocery'
p2882
I2912
sS'assaulted'
p2883
I1089
sS'compliments'
p2884
I2951
sS'bag'
p2885
I2952
sS'gotten'
p2886
I2953
sS'instruction'
p2887
I2954
sS'guacamole'
p2888
I3928
sS'grey'
p2889
I2955
sS'vocal'
p2890
I2956
sS'slaw'
p2891
I4425
sS'tummy'
p2892
I2554
sS'marriage'
p2893
I2959
sS'supposed'
p2894
I2960
sS'insulted'
p2895
I2961
sS'dispenser'
p2896
I2962
sS'kindle'
p2897
I2963
sS'stale'
p2898
I1191
sS'treated'
p2899
I2965
sS'dried'
p2900
I2966
sS'mickey'
p2901
I2967
sS'vacant'
p2902
I2968
sS'outta'
p2903
I2969
sS'uncomfortable'
p2904
I3736
sS'storytelling'
p2905
I2971
sS'outstanding'
p2906
I2972
sS'swung'
p2907
I2973
sS'tacos'
p2908
I2974
sS'alongside'
p2909
I2975
sS'ages'
p2910
I2976
sS'defect'
p2911
I2977
sS'ultra'
p2912
I4496
sS'randomly'
p2913
I2978
sS'juice'
p2914
I2979
sS'garfield'
p2915
I2980
sS'vitally'
p2916
I2981
sS'alike'
p2917
I2982
sS'cumbersome'
p2918
I2983
sS'aged'
p2919
I2984
sS'orders'
p2920
I2985
sS'option'
p2921
I2937
sS'lid'
p2922
I2986
sS'mountain'
p2923
I1729
sS'adrift'
p2924
I2989
sS'built'
p2925
I2990
sS'depending'
p2926
I2992
sS'lil'
p2927
I2993
sS'odd'
p2928
I3740
sS'self'
p2929
I2995
sS'flaming'
p2930
I2996
sS'lit'
p2931
I2997
sS'moist'
p2932
I1567
sS'without'
p2933
I2999
sS'grew'
p2934
I3000
sS'sandwiches'
p2935
I2695
sS'aggravating'
p2936
I3003
sS'keypads'
p2937
I2111
sS'fella'
p2938
I4135
sS'unremarkable'
p2939
I3005
sS'aired'
p2940
I354
sS'towards'
p2941
I982
sS'warnings'
p2942
I3799
sS'customize'
p2943
I3009
sS'eggs'
p2944
I3010
sS'english'
p2945
I3011
sS'salmon'
p2946
I269
sS'breaking'
p2947
I2686
sS'yawn'
p2948
I1074
sS'virus'
p2949
I3015
sS'charm'
p2950
I3016
sS'plan'
p2951
I3017
sS'significant'
p2952
I3018
sS'sandra'
p2953
I3019
sS'nothing'
p2954
I3020
sS'borders'
p2955
I3021
sS'extremely'
p2956
I3022
sS'screenwriter'
p2957
I3023
sS'achievement'
p2958
I3024
sS'parker'
p2959
I4274
sS'surf'
p2960
I3027
sS'spinach'
p2961
I3028
sS'mirrormask'
p2962
I554
sS'windows'
p2963
I2206
sS'performances'
p2964
I3031
sS'clear'
p2965
I3032
sS'sometimes'
p2966
I3033
sS'cover'
p2967
I3034
sS'traditional'
p2968
I3035
sS'part'
p2969
I2944
sS'storyline'
p2970
I3036
sS'artistic'
p2971
I3037
sS'clean'
p2972
I3038
sS'barren'
p2973
I3039
sS'usual'
p2974
I3041
sS'microsoft'
p2975
I3042
sS'filmed'
p2976
I3043
sS'particularly'
p2977
I3044
sS'gold'
p2978
I3045
sS'summer'
p2979
I3046
sS'fond'
p2980
I3048
sS'disappointed'
p2981
I2172
sS'accommodations'
p2982
I3049
sS'violinists'
p2983
I3051
sS'businesses'
p2984
I505
sS'melt'
p2985
I1303
sS'cds'
p2986
I3055
sS'unwrapped'
p2987
I1593
sS'fine'
p2988
I3057
sS'find'
p2989
I3058
sS'faces'
p2990
I4539
sS'exteriors'
p2991
I3059
sS'cell'
p2992
I3754
sS'giant'
p2993
I3061
sS'believe'
p2994
I2946
sS'unusable'
p2995
I2780
sS'northern'
p2996
I3062
sS'justice'
p2997
I3063
sS'unrealistic'
p2998
I3064
sS'writer'
p2999
I3810
sS'unhappy'
p3000
I3066
sS'grace'
p3001
I2948
sS'failed'
p3002
I3067
sS'wayne'
p3003
I3068
sS'cassette'
p3004
I3069
sS'convoluted'
p3005
I3070
sS'pretty'
p3006
I3071
sS'money'
p3007
I2123
sS'override'
p3008
I3073
sS'loved'
p3009
I4170
sS'hip'
p3010
I3075
sS'his'
p3011
I3076
sS'hit'
p3012
I3077
sS'mercy'
p3013
I2807
sS'luke'
p3014
I3080
sS'connections'
p3015
I1710
sS'kind'
p3016
I2949
sS'cheaper'
p3017
I3082
sS'famous'
p3018
I3084
sS'feels'
p3019
I3085
sS'b'
I2950
sS'batter'
p3020
I3087
sS'rest'
p3021
I2126
sS'theft'
p3022
I3089
sS'basement'
p3023
I3090
sS'during'
p3024
I3091
sS'frightening'
p3025
I3092
sS'him'
p3026
I3093
sS'restart'
p3027
I3094
sS'alexander'
p3028
I3095
sS'gels'
p3029
I3096
sS'roles'
p3030
I501
sS'sources'
p3031
I4580
sS'generally'
p3032
I3099
sS'seperated'
p3033
I3100
sS'batteries'
p3034
I4581
sS'underlying'
p3035
I4454
sS'gloves'
p3036
I3104
sS'scripted'
p3037
I1113
sS'double'
p3038
I3106
sS'hype'
p3039
I3107
sS'x'
I3108
sS'courteous'
p3040
I3109
sS'wrote'
p3041
I3110
sS'restaurants'
p3042
I3111
sS'bulky'
p3043
I3112
sS'scenery'
p3044
I3763
sS'bars'
p3045
I3114
sS'set'
p3046
I3115
sS'art'
p3047
I3116
sS'rocked'
p3048
I4585
sS'intelligence'
p3049
I3119
sS'advertised'
p3050
I4586
sS'sex'
p3051
I3121
sS'schizophrenic'
p3052
I3122
sS'culture'
p3053
I3123
sS'toons'
p3054
I2703
sS'individual'
p3055
I3125
sS'dumb'
p3056
I3126
sS'are'
p3057
I3127
sS'sea'
p3058
I3128
sS'tender'
p3059
I3129
sS'close'
p3060
I3130
sS'shower'
p3061
I3131
sS'practice'
p3062
I4535
sS'horrid'
p3063
I3132
sS'handed'
p3064
I3133
sS'pictures'
p3065
I3134
sS'wow'
p3066
I3135
sS'currently'
p3067
I3136
sS'please'
p3068
I3137
sS'powerhouse'
p3069
I3138
sS'fans'
p3070
I3139
sS'smallest'
p3071
I3140
sS'rumbles'
p3072
I4139
sS'crema'
p3073
I3141
sS'guilt'
p3074
I1306
sS'mouthful'
p3075
I1354
sS'weekly'
p3076
I3144
sS'woa'
p3077
I2336
sS'rita'
p3078
I3146
sS'meal'
p3079
I3147
sS'available'
p3080
I1081
sS'latin'
p3081
I3149
sS'recently'
p3082
I3150
sS'excessive'
p3083
I4570
sS'missing'
p3084
I3151
sS'initially'
p3085
I3152
sS'lange'
p3086
I3153
sS'sold'
p3087
I3154
sS'attention'
p3088
I3155
sS'coffee'
p3089
I3156
sS'premise'
p3090
I3157
sS'genre'
p3091
I11
sS'melodrama'
p3092
I3724
sS'prelude'
p3093
I3159
sS'seamlessly'
p3094
I2964
sS'both'
p3095
I3162
sS'depicts'
p3096
I3163
sS'f'
I3713
sS'improved'
p3097
I2332
sS'reverse'
p3098
I3165
sS'mega'
p3099
I3166
sS'memorized'
p3100
I3167
sS'chodorov'
p3101
I3168
sS'ponyo'
p3102
I3169
sS'barely'
p3103
I3170
sS'onion'
p3104
I3171
sS'foreign'
p3105
I3412
sS'sensitive'
p3106
I3173
sS'operas'
p3107
I341
sS'became'
p3108
I3175
sS'scamp'
p3109
I3176
sS'alot'
p3110
I3177
sS'forgotten'
p3111
I1913
sS'vegetarian'
p3112
I2570
sS'mean'
p3113
I2195
sS'whole'
p3114
I3181
sS'finds'
p3115
I3182
sS'pda'
p3116
I3183
sS'patty'
p3117
I3184
sS'subpar'
p3118
I3185
sS'liked'
p3119
I3186
sS'unmoving'
p3120
I1892
sS'reasons'
p3121
I2201
sS'sweet'
p3122
I3191
sS'embarrassing'
p3123
I2664
sS'steele'
p3124
I3193
sS'thai'
p3125
I2724
sS'whatever'
p3126
I3195
sS'hollow'
p3127
I3196
sS'dimensional'
p3128
I2517
sS'scallop'
p3129
I196
sS'simply'
p3130
I3199
sS'adaptation'
p3131
I401
sS'sing'
p3132
I4094
sS'vessel'
p3133
I3202
sS'throughout'
p3134
I3204
sS'crispy'
p3135
I3205
sS'dream'
p3136
I2734
sS'expensive'
p3137
I3207
sS'yukon'
p3138
I2870
sS'ps'
p3139
I3209
sS'worthless'
p3140
I3210
sS'described'
p3141
I3211
sS'duo'
p3142
I3212
sS'equivalent'
p3143
I3761
sS'create'
p3144
I3215
sS'trilogy'
p3145
I3216
sS'creativity'
p3146
I968
sS'due'
p3147
I3218
sS'teacher'
p3148
I3219
sS'pc'
p3149
I3220
sS'reduction'
p3150
I3221
sS'dropping'
p3151
I3222
sS'damn'
p3152
I3223
sS'whine'
p3153
I2572
sS'ireland'
p3154
I3225
sS'pe'
p3155
I2018
sS'watchable'
p3156
I3227
sS'brick'
p3157
I3228
sS'tiramisu'
p3158
I2988
sS'whoa'
p3159
I3231
sS'empty'
p3160
I3232
sS'pm'
p3161
I3233
sS'kathy'
p3162
I3234
sS'dialogue'
p3163
I3235
sS'lived'
p3164
I3236
sS'screams'
p3165
I3081
sS'boy'
p3166
I3238
sS'fire'
p3167
I3239
sS'antena'
p3168
I3240
sS'crack'
p3169
I4609
sS'gas'
p3170
I3241
sS'slideshow'
p3171
I3242
sS'imac'
p3172
I3243
sS'bitchy'
p3173
I1802
sS'anthony'
p3174
I3245
sS'pricey'
p3175
I3246
sS'casing'
p3176
I3786
sS'understand'
p3177
I3248
sS'thunderbirds'
p3178
I4118
sS'prices'
p3179
I3249
sS'standout'
p3180
I3250
sS'fucking'
p3181
I3251
sS'interior'
p3182
I3252
sS'developments'
p3183
I1565
sS'poised'
p3184
I336
sS'plants'
p3185
I3254
sS'bruschetta'
p3186
I37
sS'handling'
p3187
I2162
sS'conception'
p3188
I3257
sS'look'
p3189
I3258
sS'hostess'
p3190
I3259
sS'raw'
p3191
I3203
sS'frozen'
p3192
I56
sS'errol'
p3193
I3262
sS'bill'
p3194
I1413
sS'tolerate'
p3195
I3264
sS'batch'
p3196
I77
sS'forgetting'
p3197
I91
sS'while'
p3198
I3267
sS'replaced'
p3199
I3269
sS'ought'
p3200
I3270
sS'involved'
p3201
I3791
sS'fun'
p3202
I3271
sS'animated'
p3203
I3273
sS'loop'
p3204
I3274
sS'pack'
p3205
I3275
sS'owed'
p3206
I150
sS'casino'
p3207
I3792
sS'riz'
p3208
I3278
sS'hoping'
p3209
I3279
sS'century'
p3210
I3280
sS'incredible'
p3211
I4835
sS'antithesis'
p3212
I3281
sS'repeating'
p3213
I2241
sS'moto'
p3214
I3283
sS'disappointing'
p3215
I3284
sS'quaid'
p3216
I3285
sS'betty'
p3217
I4689
sS'itself'
p3218
I3286
sS'beautifully'
p3219
I228
sS'ready'
p3220
I3288
sS'crusty'
p3221
I3289
sS'rib'
p3222
I247
sS'different'
p3223
I2057
sS'cuisine'
p3224
I263
sS'decor'
p3225
I3295
sS'barney'
p3226
I3296
sS'shirt'
p3227
I3297
sS'anymore'
p3228
I3298
sS'originality'
p3229
I3299
sS'consolations'
p3230
I3300
sS'delicious'
p3231
I3302
sS'complaints'
p3232
I1787
sS'advise'
p3233
I3304
sS'strangers'
p3234
I1173
sS'composition'
p3235
I3306
sS'conflict'
p3236
I365
sS'higher'
p3237
I3308
sS'development'
p3238
I3309
sS'arrives'
p3239
I378
sS'lawyers'
p3240
I380
sS'dime'
p3241
I390
sS'keys'
p3242
I3313
sS'mindblowing'
p3243
I3315
sS'leopard'
p3244
I3316
sS'huston'
p3245
I3317
sS'attempted'
p3246
I3318
sS'alert'
p3247
I3319
sS'existent'
p3248
I3801
sS'brooding'
p3249
I1238
sS'levels'
p3250
I3322
sS'moving'
p3251
I437
sS'user'
p3252
I442
sS'peachy'
p3253
I3325
sS'unrestrained'
p3254
I3206
sS'perabo'
p3255
I455
sS'plugs'
p3256
I3327
sS'bob'
p3257
I3328
sS'recent'
p3258
I3329
sS'dark'
p3259
I3330
sS'lower'
p3260
I3331
sS'task'
p3261
I3332
sS'older'
p3262
I3333
sS'cheek'
p3263
I522
sS'chickens'
p3264
I3335
sS'spent'
p3265
I3336
sS'iffy'
p3266
I3337
sS'obviously'
p3267
I3338
sS'person'
p3268
I544
sS'edge'
p3269
I3340
sS'howe'
p3270
I564
sS'theatres'
p3271
I566
sS'kabuki'
p3272
I1184
sS'manna'
p3273
I3814
sS'chemistry'
p3274
I3344
sS'spend'
p3275
I3345
sS'know'
p3276
I4622
sS'cingular'
p3277
I4743
sS'things'
p3278
I854
sS'mom'
p3279
I3346
sS'ergonomic'
p3280
I3347
sS'from'
p3281
I3831
sS'trumbull'
p3282
I3579
sS'distracting'
p3283
I3349
sS'shape'
p3284
I3350
sS'sam'
p3285
I3351
sS'roasted'
p3286
I684
sS'regardless'
p3287
I2398
sS'crackles'
p3288
I3355
sS'letting'
p3289
I3356
sS'tables'
p3290
I3357
sS'superficial'
p3291
I3358
sS'cut'
p3292
I3359
sS'helping'
p3293
I3360
sS'readers'
p3294
I1902
sS'emotionally'
p3295
I4538
sS'surprises'
p3296
I829
sS'workers'
p3297
I3363
sS'cancelling'
p3298
I4353
sS'attractive'
p3299
I4608
sS'signals'
p3300
I3364
sS'shouting'
p3301
I776
sS'subjects'
p3302
I3366
sS'parents'
p3303
I3367
sS'location'
p3304
I3368
sS'sydney'
p3305
I3369
sS'comprehensible'
p3306
I804
sS'juries'
p3307
I750
sS'surprised'
p3308
I3372
sS'build'
p3309
I3001
sS'partaking'
p3310
I2174
sS'complaint'
p3311
I3374
sS'march'
p3312
I3375
sS'lacking'
p3313
I3376
sS'format'
p3314
I3377
sS'greek'
p3315
I3378
sS'evaluate'
p3316
I864
sS'couple'
p3317
I3380
sS'laughed'
p3318
I3381
sS'hayao'
p3319
I3382
sS'suffering'
p3320
I893
sS'motorola'
p3321
I4629
sS'abound'
p3322
I3384
sS'commentary'
p3323
I3004
sS'bit'
p3324
I3386
sS'bloody'
p3325
I3387
sS'wings'
p3326
I932
sS'like'
p3327
I4631
sS'knock'
p3328
I3390
sS'hours'
p3329
I2553
sS'labute'
p3330
I953
sS'semi'
p3331
I3393
sS'follows'
p3332
I3394
sS'eew'
p3333
I981
sS'holes'
p3334
I3396
sS'glove'
p3335
I3397
sS'chow'
p3336
I3398
sS'ignore'
p3337
I3399
sS'collect'
p3338
I2502
sS'continue'
p3339
I3402
sS'indication'
p3340
I1019
sS'howell'
p3341
I3404
sS'popular'
p3342
I3405
sS'stylish'
p3343
I3406
sS'bamboo'
p3344
I3407
sS'foolish'
p3345
I3408
sS'healthy'
p3346
I3409
sS'terminology'
p3347
I676
sS'love'
p3348
I3354
sS'clipping'
p3349
I3413
sS'google'
p3350
I3414
sS'often'
p3351
I3415
sS'fellowes'
p3352
I3417
sS'humorous'
p3353
I3213
sS'obliged'
p3354
I1818
sS'dumbest'
p3355
I3824
sS'magnificent'
p3356
I461
sS'play'
p3357
I3006
sS'teeth'
p3358
I3424
sS'understood'
p3359
I3425
sS'added'
p3360
I1279
sS'mighty'
p3361
I1124
sS'pricing'
p3362
I3428
sS'sight'
p3363
I3429
sS'candle'
p3364
I3431
sS'sprint'
p3365
I3432
sS'stir'
p3366
I3433
sS'pale'
p3367
I3013
sS'ourselves'
p3368
I3435
sS'sauces'
p3369
I3436
sS'delivered'
p3370
I3437
sS'ursula'
p3371
I3438
sS'scale'
p3372
I3439
sS'describing'
p3373
I3440
sS'dull'
p3374
I3441
sS'contacts'
p3375
I3442
sS'tools'
p3376
I3827
sS'absolutely'
p3377
I3418
sS'gratuity'
p3378
I903
sS'pros'
p3379
I3446
sS'exceeding'
p3380
I312
sS'seller'
p3381
I3448
sS'wrong'
p3382
I1645
sS'connecting'
p3383
I3449
sS'masculinity'
p3384
I3450
sS'ticking'
p3385
I3451
sS'anne'
p3386
I3452
sS'bellagio'
p3387
I3453
sS'shooters'
p3388
I1276
sS'cgi'
p3389
I3455
sS'everybody'
p3390
I1371
sS'claimed'
p3391
I3457
sS'run'
p3392
I1296
sS'professionals'
p3393
I3459
sS'fancy'
p3394
I3460
sS'word'
p3395
I1255
sS'lose'
p3396
I4641
sS'costumes'
p3397
I3463
sS'infra'
p3398
I1328
sS'zombie'
p3399
I1839
sS'rent'
p3400
I1745
sS'fee'
p3401
I3830
sS'oem'
p3402
I1357
sS'chick'
p3403
I3468
sS'ache'
p3404
I3519
sS'carol'
p3405
I3470
sS'raspberry'
p3406
I3471
sS'abroad'
p3407
I541
sS'vivid'
p3408
I2059
sS'shine'
p3409
I3474
sS'works'
p3410
I4644
sS'inconsiderate'
p3411
I4707
sS'wouldnt'
p3412
I1416
sS'hackneyed'
p3413
I1421
sS'people'
p3414
I990
sS'ordeal'
p3415
I1440
sS'truck'
p3416
I4229
sS'drama'
p3417
I1455
sS'aye'
p3418
I1376
sS'range'
p3419
I3482
sS'regular'
p3420
I3401
sS'beans'
p3421
I3484
sS'below'
p3422
I4804
sS'dialog'
p3423
I3485
sS'stuart'
p3424
I3486
sS'messaging'
p3425
I3487
sS'hatred'
p3426
I3488
sS'armand'
p3427
I3489
sS'shiny'
p3428
I3490
sS'dwight'
p3429
I3491
sS'block'
p3430
I913
sS'spicier'
p3431
I1926
sS'seeing'
p3432
I1179
sS'jimmy'
p3433
I3495
sS'real'
p3434
I3276
sS'eaten'
p3435
I3496
sS'garbage'
p3436
I3497
sS'plethora'
p3437
I3498
sS'dude'
p3438
I3500
sS'into'
p3439
I3501
sS'good'
p3440
I2774
sS'integral'
p3441
I3503
sS'nonsense'
p3442
I3504
sS'servers'
p3443
I3505
sS'services'
p3444
I3506
sS'appropriate'
p3445
I2072
sS'racism'
p3446
I2224
sS'holster'
p3447
I3509
sS'lesson'
p3448
I3510
sS'rolls'
p3449
I3511
sS'smells'
p3450
I3512
sS'famed'
p3451
I4646
sS'canal'
p3452
I3513
sS'impressed'
p3453
I3514
sS'cibo'
p3454
I3515
sS'been'
p3455
I4741
sS'span'
p3456
I3516
sS'infuriating'
p3457
I3517
sS'forgeries'
p3458
I2432
sS'apparently'
p3459
I4208
sS'smoothly'
p3460
I4654
sS'question'
p3461
I3521
sS'live'
p3462
I3522
sS'long'
p3463
I1663
sS'indoor'
p3464
I3524
sS'camera'
p3465
I3840
sS'thriller'
p3466
I1837
sS'homemade'
p3467
I3527
sS'forward'
p3468
I3528
sS'bored'
p3469
I1712
sS'scared'
p3470
I4655
sS'opens'
p3471
I3531
sS'opposed'
p3472
I2681
sS'procedures'
p3473
I4333
sS'himself'
p3474
I3533
sS'perplexing'
p3475
I3534
sS'underlines'
p3476
I1096
sS'inches'
p3477
I3536
sS'filet'
p3478
I3537
sS'relaxed'
p3479
I3538
sS'frost'
p3480
I3539
sS'hoped'
p3481
I3540
sS'lino'
p3482
I3541
sS'boys'
p3483
I3542
sS'properly'
p3484
I3543
sS'hopes'
p3485
I3544
sS'sun'
p3486
I1788
sS'line'
p3487
I3546
sS'amateurish'
p3488
I3547
sS'wedding'
p3489
I3976
sS'nutshell'
p3490
I2991
sS'posted'
p3491
I3549
sS'directed'
p3492
I3550
sS'paolo'
p3493
I3551
sS'rejection'
p3494
I3552
sS'redeemed'
p3495
I1880
sS'fulfilling'
p3496
I3554
sS'sturdy'
p3497
I3029
sS'fries'
p3498
I3556
sS'up'
p3499
I3557
sS'us'
p3500
I3558
sS'par'
p3501
I2705
sS'um'
p3502
I1908
sS'mobile'
p3503
I3030
sS'customers'
p3504
I3562
sS'mature'
p3505
I3563
sS'aversion'
p3506
I3564
sS'ue'
p3507
I1936
sS'highlight'
p3508
I3566
sS'happiness'
p3509
I4591
sS'fried'
p3510
I3567
sS'similar'
p3511
I339
sS'medical'
p3512
I1742
sS'bell'
p3513
I3570
sS'nachos'
p3514
I2564
sS'flop'
p3515
I1917
sS'constant'
p3516
I631
sS'worthwhile'
p3517
I3574
sS'stick'
p3518
I3575
sS'pencil'
p3519
I3851
sS'raging'
p3520
I1986
sS'metal'
p3521
I3578
sS'chai'
p3522
I2899
sS'haunt'
p3523
I2005
sS'flush'
p3524
I4664
sS'package'
p3525
I3881
sS'disrespected'
p3526
I3353
sS'single'
p3527
I3583
sS'diverse'
p3528
I2025
sS'stops'
p3529
I3663
sS'disgusted'
p3530
I4092
sS'organizational'
p3531
I3586
sS'cafe'
p3532
I3587
sS'decipher'
p3533
I3198
sS'cotton'
p3534
I3588
sS'echo'
p3535
I4123
sS'peter'
p3536
I4667
sS'lemon'
p3537
I3591
sS'riot'
p3538
I3592
sS'peach'
p3539
I3593
sS'akasha'
p3540
I3855
sS'nan'
p3541
I2270
sS'saffron'
p3542
I3595
sS'plugged'
p3543
I3596
sS'occasional'
p3544
I3597
sS'kirk'
p3545
I377
sS'irda'
p3546
I3599
sS'actors'
p3547
I2150
sS'nay'
p3548
I3602
sS'nice'
p3549
I3603
sS'tedium'
p3550
I3604
sS'lucio'
p3551
I3605
sS'muddled'
p3552
I3606
sS'duper'
p3553
I3607
sS'generates'
p3554
I730
sS'gross'
p3555
I3609
sS'ryans'
p3556
I2215
sS'roeg'
p3557
I3611
sS'leni'
p3558
I3612
sS'understatement'
p3559
I3613
sS'problems'
p3560
I3614
sS'prepared'
p3561
I757
sS'william'
p3562
I1225
sS'drag'
p3563
I2252
sS'baxendale'
p3564
I2266
sS'utterly'
p3565
I3620
sS'reservation'
p3566
I2092
sS'song'
p3567
I3622
sS'clue'
p3568
I3623
sS'meals'
p3569
I94
sS'earphones'
p3570
I3625
sS'mood'
p3571
I3626
sS'ago'
p3572
I3627
sS'tailored'
p3573
I179
sS'notch'
p3574
I3290
sS'happier'
p3575
I3630
sS'disbelief'
p3576
I3631
sS'practically'
p3577
I3632
sS'dvd'
p3578
I3633
sS'age'
p3579
I3634
sS'vehicles'
p3580
I3635
sS'youtube'
p3581
I529
sS'walked'
p3582
I3638
sS'appalling'
p3583
I3639
sS'moment'
p3584
I3321
sS'cooked'
p3585
I3640
sS'depth'
p3586
I3641
sS'hella'
p3587
I3642
sS'applauded'
p3588
I3779
sS'memories'
p3589
I2208
sS'far'
p3590
I3644
sS'beers'
p3591
I3518
sS'gung'
p3592
I2531
sS'menace'
p3593
I3647
sS'buffalo'
p3594
I3648
sS'hello'
p3595
I665
sS'rinse'
p3596
I3650
sS'once'
p3597
I3651
sS'portraying'
p3598
I3652
sS'jason'
p3599
I3653
sS'faultless'
p3600
I3865
sS'scratch'
p3601
I3655
sS'results'
p3602
I3656
sS'nuns'
p3603
I3657
sS'existing'
p3604
I3658
sS'steve'
p3605
I2490
sS'desserts'
p3606
I3660
sS'gc'
p3607
I3662
sS'jiggle'
p3608
I2212
sS'cry'
p3609
I4455
sS'screen'
p3610
I1932
sS'reheated'
p3611
I2001
sS'either'
p3612
I3454
sS'centers'
p3613
I3667
sS'issues'
p3614
I2540
sS'seemed'
p3615
I3669
sS'biggest'
p3616
I4767
sS'lyrics'
p3617
I3671
sS'peanut'
p3618
I3672
sS'lilli'
p3619
I3673
sS'young'
p3620
I2125
sS'send'
p3621
I3675
sS'maintaining'
p3622
I3676
sS'uniqueness'
p3623
I3677
sS'cradle'
p3624
I4682
sS'helps'
p3625
I3679
sS'masculine'
p3626
I3680
sS'stable'
p3627
I3681
sS'ambience'
p3628
I3682
sS'describes'
p3629
I4764
sS'dislike'
p3630
I2636
sS'pleasing'
p3631
I3684
sS'friendly'
p3632
I3685
sS'relocated'
p3633
I2652
sS'uploaded'
p3634
I3687
sS'pay'
p3635
I2061
sS'ironside'
p3636
I4781
sS'tracfone'
p3637
I3689
sS'garden'
p3638
I3690
sS'torture'
p3639
I3691
sS'fishnet'
p3640
I3692
sS'dessert'
p3641
I3693
sS'continues'
p3642
I3694
sS'conditions'
p3643
I4341
sS'engineered'
p3644
I3695
sS'wave'
p3645
I3696
sS'pointillistic'
p3646
I4685
sS'sinister'
p3647
I4715
sS'putting'
p3648
I3699
sS'literally'
p3649
I4677
sS'cellular'
p3650
I3700
sS'implausible'
p3651
I3701
sS'toasted'
p3652
I3702
sS'drinking'
p3653
I3703
sS'edible'
p3654
I3704
sS'timely'
p3655
I3705
sS'superfast'
p3656
I3307
sS'magic'
p3657
I3707
sS'sublimely'
p3658
I3708
sS'transmission'
p3659
I3710
sS'experiencing'
p3660
I2802
sS'button'
p3661
I3712
sS'having'
p3662
I3649
sS'michael'
p3663
I3714
sS'attempts'
p3664
I3715
sS'ryan'
p3665
I3716
sS'try'
p3666
I3717
sS'race'
p3667
I2840
sS'dealt'
p3668
I2858
sS'relation'
p3669
I3053
sS'noted'
p3670
I3722
sS'joey'
p3671
I3723
sS'limitations'
p3672
I4690
sS'smaller'
p3673
I2905
sS'gripping'
p3674
I3725
sS'pledge'
p3675
I3726
sS'carly'
p3676
I3727
sS'tinny'
p3677
I2936
sS'mediterranean'
p3678
I3729
sS'pepper'
p3679
I3303
sS'pyromaniac'
p3680
I3731
sS'cellphones'
p3681
I4534
sS'accessing'
p3682
I2223
sS'video'
p3683
I3735
sS'go'
p3684
I3664
sS'earth'
p3685
I3737
sS'download'
p3686
I3738
sS'cartel'
p3687
I3739
sS'spaghetti'
p3688
I2994
sS'makers'
p3689
I3741
sS'clich'
p3690
I3742
sS'victor'
p3691
I3743
sS'reconciliation'
p3692
I3008
sS'plays'
p3693
I3745
sS'evokes'
p3694
I3025
sS'soup'
p3695
I1446
sS'giving'
p3696
I3748
sS'fianc'
p3697
I3749
sS'saw'
p3698
I3750
sS'sangria'
p3699
I3047
sS'vampire'
p3700
I3752
sS'overwhelmed'
p3701
I3753
sS'access'
p3702
I3060
sS'paying'
p3703
I3755
sS'waiting'
p3704
I3756
sS'indian'
p3705
I3757
sS'volatile'
p3706
I3074
sS't'
I3759
sS'renders'
p3707
I1428
sS'bird'
p3708
I3102
sS'exercise'
p3709
I3762
sS'body'
p3710
I3113
sS'impact'
p3711
I3764
sS'lee'
p3712
I3766
sS'degree'
p3713
I3767
sS'exchange'
p3714
I3768
sS'notable'
p3715
I3769
sS'commercial'
p3716
I3770
sS'sins'
p3717
I3771
sS'delivering'
p3718
I3772
sS'comical'
p3719
I4687
sS'desired'
p3720
I1845
sS'ramsey'
p3721
I3416
sS'focused'
p3722
I3179
sS'sink'
p3723
I3776
sS'pancake'
p3724
I3777
sS'others'
p3725
I3778
sS'sexy'
p3726
I175
sS'invented'
p3727
I3780
sS'fifteen'
p3728
I3214
sS'irritating'
p3729
I3782
sS'watered'
p3730
I3783
sS'great'
p3731
I3785
sS'debits'
p3732
I3247
sS'talent'
p3733
I3787
sS'metro'
p3734
I1621
sS'credits'
p3735
I297
sS'distressed'
p3736
I3266
sS'bites'
p3737
I1433
sS'larger'
p3738
I3277
sS'affordable'
p3739
I3793
sS'iced'
p3740
I3601
sS'leaving'
p3741
I3795
sS'periods'
p3742
I4823
sS'suggests'
p3743
I3796
sS'trashy'
p3744
I4081
sS'products'
p3745
I3797
sS'unconditional'
p3746
I1435
sS'menu'
p3747
I2635
sS'popcorn'
p3748
I3320
sS'opinion'
p3749
I3802
sS'spices'
p3750
I3803
sS'makes'
p3751
I3804
sS'honor'
p3752
I57
sS'involves'
p3753
I3806
sS'thats'
p3754
I3807
sS'composed'
p3755
I3808
sS'apple'
p3756
I3811
sS'heart'
p3757
I3812
sS'pitch'
p3758
I4357
sS'win'
p3759
I3813
sS'app'
p3760
I438
sS'nationalities'
p3761
I4700
sS'dedicated'
p3762
I3817
sS'apt'
p3763
I3818
sS'kris'
p3764
I3747
sS'gordon'
p3765
I2099
sS'street'
p3766
I3822
sS'motor'
p3767
I3823
sS'duck'
p3768
I3421
sS'gimmick'
p3769
I3825
sS'boasts'
p3770
I3443
sS'witnessed'
p3771
I3828
sS'confidence'
p3772
I64
sS'embarassing'
p3773
I2239
sS'crap'
p3774
I3469
sS'usb'
p3775
I3473
sS'inspiration'
p3776
I4872
sS'connery'
p3777
I3478
sS'chefs'
p3778
I3834
sS'seamless'
p3779
I3835
sS'frog'
p3780
I3836
sS'next'
p3781
I3837
sS'garbled'
p3782
I1443
sS'depicted'
p3783
I3839
sS'doubt'
p3784
I3525
sS'debbie'
p3785
I3841
sS'crab'
p3786
I3842
sS'vehicle'
p3787
I3843
sS'd'
I3392
sS'fulci'
p3788
I3845
sS'themselves'
p3789
I3846
sS'stage'
p3790
I3847
sS'chip'
p3791
I4813
sS'touched'
p3792
I3849
sS'baba'
p3793
I2220
sS'charcoal'
p3794
I3576
sS'clever'
p3795
I3852
sS'trippy'
p3796
I3853
sS'rich'
p3797
I3854
sS'snap'
p3798
I3370
sS'started'
p3799
I3856
sS'becomes'
p3800
I3857
sS'factor'
p3801
I3072
sS'about'
p3802
I4708
sS'columbo'
p3803
I3860
sS'charming'
p3804
I3861
sS'meant'
p3805
I3862
sS'sore'
p3806
I2315
sS'train'
p3807
I3864
sS'rubbish'
p3808
I3654
sS'baby'
p3809
I3866
sS'central'
p3810
I3867
sS'unfaithful'
p3811
I3868
sS'chipotle'
p3812
I3869
sS'starter'
p3813
I3870
sS'women'
p3814
I3871
sS'customer'
p3815
I3872
sS'majority'
p3816
I3361
sS'balls'
p3817
I3874
sS'animals'
p3818
I3875
sS'stereotypically'
p3819
I4711
sS'salad'
p3820
I3876
sS'heard'
p3821
I3697
sS'this'
p3822
I3878
sS'gabriel'
p3823
I3879
sS'ride'
p3824
I3880
sS'clients'
p3825
I1404
sS'frances'
p3826
I3616
sS'critic'
p3827
I3882
sS'dusted'
p3828
I66
sS'anywhere'
p3829
I3885
sS'obvious'
p3830
I3886
sS'thin'
p3831
I3887
sS'faceplates'
p3832
I3888
sS'uninspired'
p3833
I4431
sS'meet'
p3834
I447
sS'drops'
p3835
I3891
sS'purity'
p3836
I3052
sS'control'
p3837
I3893
sS'wearing'
p3838
I636
sS'slid'
p3839
I3895
sS'weaker'
p3840
I3896
sS'tap'
p3841
I3897
sS'patron'
p3842
I3898
sS'monica'
p3843
I3899
sS'process'
p3844
I3900
sS'lock'
p3845
I3901
sS'slim'
p3846
I3902
sS'dripping'
p3847
I3903
sS'pieces'
p3848
I3904
sS'wih'
p3849
I3819
sS'professor'
p3850
I3906
sS'villain'
p3851
I3907
sS'syrupy'
p3852
I3890
sS'bend'
p3853
I3079
sS'bloodiest'
p3854
I3910
sS'smartphone'
p3855
I2755
sS'wonderful'
p3856
I3911
sS'voice'
p3857
I824
sS'colored'
p3858
I2567
sS'native'
p3859
I2338
sS'psyched'
p3860
I3915
sS'educational'
p3861
I3916
sS'six'
p3862
I3972
sS'docking'
p3863
I3917
sS'defective'
p3864
I3918
sS'sit'
p3865
I1410
sS'dinners'
p3866
I67
sS'purpose'
p3867
I3324
sS'waterproof'
p3868
I3078
sS'poetry'
p3869
I3923
sS'moods'
p3870
I3924
sS'evidently'
p3871
I3925
sS'solidifying'
p3872
I3718
sS'located'
p3873
I3733
sS'bmw'
p3874
I2008
sS'escalating'
p3875
I2256
sS'camerawork'
p3876
I3929
sS'instead'
p3877
I3930
sS'counterfeit'
p3878
I3914
sS'intelligent'
p3879
I3932
sS'sim'
p3880
I3933
sS'airline'
p3881
I3934
sS'fare'
p3882
I3935
sS'tension'
p3883
I3936
sS'buildings'
p3884
I3937
sS'mystifying'
p3885
I3938
sS'oy'
p3886
I3939
sS'easily'
p3887
I2792
sS'watch'
p3888
I2459
sS'roam'
p3889
I2259
sS'tied'
p3890
I3942
sS'discomfort'
p3891
I3943
sS'structure'
p3892
I3944
sS'taco'
p3893
I4119
sS'fits'
p3894
I3946
sS'marrow'
p3895
I3947
sS'tomato'
p3896
I3948
sS'geek'
p3897
I3949
sS'realized'
p3898
I3863
sS'muppets'
p3899
I3951
sS'chasing'
p3900
I3952
sS'host'
p3901
I3953
sS'light'
p3902
I3954
sS'lame'
p3903
I1875
sS'lines'
p3904
I3956
sS'watson'
p3905
I3957
sS'element'
p3906
I3958
sS'destroying'
p3907
I3920
sS'bakery'
p3908
I3960
sS'synchronization'
p3909
I3086
sS'honestly'
p3910
I3961
sS'allot'
p3911
I3962
sS'allow'
p3912
I3963
sS'classy'
p3913
I3964
sS'necklace'
p3914
I3965
sS'looking'
p3915
I1611
sS'martini'
p3916
I3968
sS'bartenders'
p3917
I3969
sS'preparing'
p3918
I3970
sS'ha'
p3919
I3971
sS'holds'
p3920
I3921
sS'soggy'
p3921
I3973
sS'producer'
p3922
I3974
sS'wontons'
p3923
I3913
sS'wit'
p3924
I3821
sS'move'
p3925
I285
sS'produced'
p3926
I3977
sS'including'
p3927
I3979
sS'looks'
p3928
I3980
sS'cruise'
p3929
I1896
sS'mentioned'
p3930
I3982
sS'strident'
p3931
I4789
sS'bunch'
p3932
I3983
sS'perfect'
p3933
I3984
sS'delay'
p3934
I3926
sS'blake'
p3935
I3986
sS'gringos'
p3936
I3987
sS'affleck'
p3937
I3988
sS'brian'
p3938
I3927
sS'chosen'
p3939
I3990
sS'll'
p3940
I3991
sS'nostalgia'
p3941
I3992
sS'unreal'
p3942
I4403
sS'whites'
p3943
I3994
sS'blatant'
p3944
I3995
sS'optimal'
p3945
I4272
sS'choose'
p3946
I3996
sS'cotta'
p3947
I3997
sS'headsets'
p3948
I2273
sS'inconsistencies'
p3949
I3999
sS'derivative'
p3950
I2970
sS'bye'
p3951
I2850
sS'crowds'
p3952
I4002
sS'setting'
p3953
I2145
sS'lined'
p3954
I4252
sS'freeman'
p3955
I4004
sS'designs'
p3956
I4005
sS'crash'
p3957
I4006
sS'pure'
p3958
I2887
sS'chills'
p3959
I4110
sS'auto'
p3960
I4009
sS'material'
p3961
I1061
sS'uhura'
p3962
I2
sS'negligent'
p3963
I4012
sS'mention'
p3964
I4013
sS'cutting'
p3965
I4014
sS'courtroom'
p3966
I4015
sS'legendary'
p3967
I4016
sS'hands'
p3968
I4017
sS'front'
p3969
I4018
sS'realize'
p3970
I1164
sS'comedy'
p3971
I3931
sS'damian'
p3972
I4020
sS'trond'
p3973
I4021
sS'risotto'
p3974
I4023
sS'establishment'
p3975
I4024
sS'radiant'
p3976
I4025
sS'freshness'
p3977
I4026
sS'identified'
p3978
I4027
sS'unpredictable'
p3979
I4029
sS'bachi'
p3980
I1987
sS'mode'
p3981
I4031
sS'viewing'
p3982
I1699
sS'accompanied'
p3983
I4034
sS'identifies'
p3984
I4035
sS'bills'
p3985
I4036
sS'uninteresting'
p3986
I4037
sS'experienced'
p3987
I3007
sS'glasses'
p3988
I4038
sS'few'
p3989
I3838
sS'ratings'
p3990
I2987
sS'salsa'
p3991
I4040
sS'activate'
p3992
I4041
sS'angus'
p3993
I2495
sS'trooper'
p3994
I2833
sS'doing'
p3995
I4043
sS'timeless'
p3996
I4044
sS'freaking'
p3997
I2957
sS'parties'
p3998
I1070
sS'ambiance'
p3999
I4047
sS'staying'
p4000
I2913
sS'related'
p4001
I4049
sS'bluetooth'
p4002
I4050
sS'kitchen'
p4003
I4460
sS'static'
p4004
I4051
sS'interplay'
p4005
I4052
sS'mollusk'
p4006
I4053
sS'our'
p4007
I4054
sS'cutouts'
p4008
I4814
sS'salesman'
p4009
I221
sS'special'
p4010
I4056
sS'out'
p4011
I4057
sS'groove'
p4012
I2830
sS'unoriginal'
p4013
I4058
sS'lastly'
p4014
I4059
sS'cocktail'
p4015
I3118
sS'sentiment'
p4016
I4061
sS'frontier'
p4017
I1717
sS'continuity'
p4018
I3894
sS'pointless'
p4019
I4748
sS'desert'
p4020
I4064
sS'monumental'
p4021
I4065
sS'bergen'
p4022
I4066
sS'transcend'
p4023
I4067
sS'strokes'
p4024
I4068
sS'yellowtail'
p4025
I4069
sS'superbly'
p4026
I4070
sS'narrative'
p4027
I3643
sS'electronics'
p4028
I4073
sS'cause'
p4029
I4075
sS'integrated'
p4030
I4076
sS'red'
p4031
I4077
sS'cartoons'
p4032
I3105
sS'shut'
p4033
I4080
sS'jessica'
p4034
I232
sS'wines'
p4035
I4082
sS'southern'
p4036
I2932
sS'ipod'
p4037
I4084
sS'maintains'
p4038
I4085
sS'greedy'
p4039
I122
sS'promptly'
p4040
I4087
sS'embassy'
p4041
I4088
sS'grilled'
p4042
I4089
sS'completely'
p4043
I4090
sS'surely'
p4044
I4091
sS'latest'
p4045
I4567
sS'noises'
p4046
I3919
sS'latte'
p4047
I2823
sS'business'
p4048
I3746
sS'craving'
p4049
I3101
sS'mandalay'
p4050
I4095
sS'scary'
p4051
I4096
sS'her'
p4052
I2293
sS'g'
I4098
sS'could'
p4053
I4099
sS'hes'
p4054
I4100
sS'put'
p4055
I2867
sS'times'
p4056
I239
sS'chilly'
p4057
I3826
sS'chicken'
p4058
I2613
sS'outlandish'
p4059
I4105
sS'hawaiian'
p4060
I4106
sS'need'
p4061
I4206
sS'assumed'
p4062
I4107
sS'hence'
p4063
I4108
sS'mein'
p4064
I4109
sS'repeats'
p4065
I281
sS'scare'
p4066
I4111
sS'latched'
p4067
I293
sS'mad'
p4068
I4113
sS'firehouse'
p4069
I307
sS'screens'
p4070
I2594
sS'finest'
p4071
I4115
sS'transmitters'
p4072
I4116
sS'succeeds'
p4073
I4117
sS'third'
p4074
I1713
sS'fleshed'
p4075
I3348
sS'powerful'
p4076
I4120
sS'veal'
p4077
I3589
sS'sack'
p4078
I2187
sS'philadelphia'
p4079
I560
sS'embarrassed'
p4080
I4124
sS'pneumatic'
p4081
I3420
sS'puppet'
p4082
I1684
sS'hugo'
p4083
I2827
sS'owner'
p4084
I4127
sS'patriotism'
p4085
I4128
sS'blows'
p4086
I4129
sS'precisely'
p4087
I3499
sS'quality'
p4088
I4131
sS'suck'
p4089
I4132
sS'owning'
p4090
I4133
sS'miserably'
p4091
I4134
sS'has'
p4092
I813
sS'management'
p4093
I4136
sS'sadly'
p4094
I417
sS'fascinating'
p4095
I4138
sS'start'
p4096
I3848
sS'ordering'
p4097
I4140
sS'guys'
p4098
I4008
sS'durable'
p4099
I4142
sS'galley'
p4100
I446
sS'system'
p4101
I4145
sS'relations'
p4102
I4146
sS'eighth'
p4103
I4147
sS'portraits'
p4104
I3226
sS'their'
p4105
I4148
sS'attack'
p4106
I4149
sS'slide'
p4107
I4030
sS'wrapped'
p4108
I4151
sS'wilkinson'
p4109
I499
sS'fluffy'
p4110
I2785
sS'townsend'
p4111
I514
sS'prone'
p4112
I4155
sS'back'
p4113
I3423
sS'shell'
p4114
I531
sS'stomach'
p4115
I4157
sS'lot'
p4116
I4158
sS'mojitos'
p4117
I4159
sS'academy'
p4118
I1575
sS'explanation'
p4119
I557
sS'shallow'
p4120
I559
sS'knightley'
p4121
I3950
sS'uncalled'
p4122
I4164
sS'depressing'
p4123
I4165
sS'slider'
p4124
I4166
sS'fuzzy'
p4125
I2041
sS'picked'
p4126
I4168
sS'remember'
p4127
I4169
sS'nun'
p4128
I3636
sS'buddy'
p4129
I3388
sS'ben'
p4130
I653
sS'boring'
p4131
I672
sS'bother'
p4132
I4175
sS'depends'
p4133
I2442
sS'coaster'
p4134
I2563
sS'tortured'
p4135
I4178
sS'politics'
p4136
I4179
sS'appealing'
p4137
I4180
sS'loves'
p4138
I4181
sS'lover'
p4139
I720
sS'bare'
p4140
I3809
sS'negatively'
p4141
I4184
sS'providing'
p4142
I4185
sS'sculpture'
p4143
I3711
sS'nervous'
p4144
I4187
sS'steer'
p4145
I4188
sS'ferry'
p4146
I4189
sS'drunk'
p4147
I4190
sS'imaginative'
p4148
I4191
sS'counter'
p4149
I3955
sS'villains'
p4150
I766
sS'eloquently'
p4151
I4726
sS'lightly'
p4152
I774
sS'viewer'
p4153
I4195
sS'julian'
p4154
I1801
sS'gently'
p4155
I503
sS'comfortable'
p4156
I4198
sS'tonight'
p4157
I4199
sS'gentle'
p4158
I4200
sS'recessed'
p4159
I4201
sS'comfortably'
p4160
I4202
sS'imdb'
p4161
I4203
sS'have'
p4162
I4204
sS'miserable'
p4163
I4205
sS'faux'
p4164
I1156
sS'facing'
p4165
I4207
sS'godfathers'
p4166
I3993
sS'clearly'
p4167
I858
sS'escapism'
p4168
I4210
sS'complete'
p4169
I4211
sS'unbearable'
p4170
I4212
sS'microphone'
p4171
I4213
sS'afraid'
p4172
I4214
sS'angle'
p4173
I4215
sS'venturing'
p4174
I4216
sS'dishes'
p4175
I4217
sS'min'
p4176
I4218
sS'mclaglen'
p4177
I4219
sS'hankies'
p4178
I504
sS'reviewer'
p4179
I4221
sS'inexperience'
p4180
I3877
sS'mid'
p4181
I4223
sS'purchasing'
p4182
I1104
sS'provokes'
p4183
I4225
sS'lilt'
p4184
I928
sS'lousy'
p4185
I2683
sS'which'
p4186
I4228
sS'linda'
p4187
I1291
sS'subject'
p4188
I4230
sS'visor'
p4189
I4231
sS'soap'
p4190
I973
sS'bussell'
p4191
I4233
sS'ortolani'
p4192
I4234
sS'sequel'
p4193
I4777
sS'unless'
p4194
I4236
sS'hankering'
p4195
I4237
sS'senses'
p4196
I4465
sS'who'
p4197
I4238
sS'scenes'
p4198
I4239
sS'intentions'
p4199
I4240
sS'bipolarity'
p4200
I4241
sS'connected'
p4201
I4242
sS'but'
p4202
I4780
sS'logitech'
p4203
I4243
sS'device'
p4204
I4244
sS'steiners'
p4205
I4245
sS'friend'
p4206
I4246
sS'fisted'
p4207
I4247
sS'facial'
p4208
I4623
sS'class'
p4209
I1082
sS'fair'
p4210
I4249
sS'sean'
p4211
I1901
sS'cellphone'
p4212
I4250
sS'stereo'
p4213
I4251
sS'iriver'
p4214
I3967
sS'expert'
p4215
I4253
sS'consequences'
p4216
I4254
sS'nobody'
p4217
I4255
sS'enthusiastic'
p4218
I1556
sS'bouchon'
p4219
I4257
sS'brought'
p4220
I4258
sS'breeze'
p4221
I4033
sS'looked'
p4222
I4260
sS'deadpan'
p4223
I4261
sS'proceedings'
p4224
I4262
sS'construction'
p4225
I4785
sS'yum'
p4226
I4264
sS'similarly'
p4227
I4265
sS'movie'
p4228
I4266
sS'morgan'
p4229
I2653
sS'infatuated'
p4230
I4834
sS'typical'
p4231
I4267
sS'ensued'
p4232
I1188
sS'ackerman'
p4233
I4269
sS'fact'
p4234
I4270
sS'should'
p4235
I4300
sS'impression'
p4236
I908
sS'atmosphere'
p4237
I4273
sS'selection'
p4238
I1093
sS'past'
p4239
I3461
sS'lack'
p4240
I2445
sS'agreed'
p4241
I4277
sS'pleaser'
p4242
I3050
sS'doughy'
p4243
I1247
sS'anyway'
p4244
I4280
sS'brother'
p4245
I4281
sS'unbelievable'
p4246
I4048
sS'eccleston'
p4247
I202
sS'planning'
p4248
I1270
sS'behold'
p4249
I4847
sS'fumbling'
p4250
I4285
sS'soldiers'
p4251
I1295
sS'rough'
p4252
I1194
sS'longer'
p4253
I4288
sS'underappreciated'
p4254
I4289
sS'pleased'
p4255
I4290
sS'decade'
p4256
I4291
sS'staff'
p4257
I4292
sS'one'
p4258
I1661
sS'inspiring'
p4259
I4293
sS'costco'
p4260
I1503
sS'based'
p4261
I1326
sS'jay'
p4262
I4296
sS'mute'
p4263
I3975
sS'woo'
p4264
I4298
sS'controls'
p4265
I4299
sS'bug'
p4266
I3083
sS'buttons'
p4267
I4301
sS'surroundings'
p4268
I4302
sS'score'
p4269
I4303
sS'tape'
p4270
I4304
sS'palmtop'
p4271
I4790
sS'combo'
p4272
I1402
sS'employee'
p4273
I4308
sS'piano'
p4274
I4309
sS'spice'
p4275
I4310
sS'shakespear'
p4276
I4192
sS'spiffy'
p4277
I4312
sS'hope'
p4278
I4313
sS'regularly'
p4279
I358
sS'cinematography'
p4280
I4598
sS'preservation'
p4281
I2901
sS'earbud'
p4282
I4315
sS'handle'
p4283
I4316
sS'skimp'
p4284
I4317
sS'exceptional'
p4285
I1459
sS'beat'
p4286
I4319
sS'familiar'
p4287
I4320
sS'backlight'
p4288
I3668
sS'hopefully'
p4289
I4322
sS'overall'
p4290
I4323
sS'bear'
p4291
I4324
sS'blare'
p4292
I4325
sS'yelps'
p4293
I38
sS'joint'
p4294
I4327
sS'bean'
p4295
I1502
sS'ones'
p4296
I4329
sS'perfection'
p4297
I4330
sS'joins'
p4298
I3781
sS'probably'
p4299
I3142
sS'timing'
p4300
I3844
sS'chips'
p4301
I2214
sS'burned'
p4302
I3143
sS'bellies'
p4303
I4337
sS'qu'
p4304
I4338
sS'places'
p4305
I4796
sS'brain'
p4306
I2319
sS'numerous'
p4307
I3145
sS'fixes'
p4308
I4343
sS'scientist'
p4309
I3730
sS'naughty'
p4310
I4344
sS'stuff'
p4311
I4345
sS'she'
p4312
I4347
sS'contain'
p4313
I1628
sS'grab'
p4314
I4349
sS'gerardo'
p4315
I4350
sS'experiences'
p4316
I4351
sS'view'
p4317
I4352
sS'europe'
p4318
I3148
sS'inventive'
p4319
I4355
sS'national'
p4320
I4356
sS'abstruse'
p4321
I3981
sS'humans'
p4322
I4358
sS'lazy'
p4323
I4359
sS'operates'
p4324
I4360
sS'puppets'
p4325
I4361
sS'edition'
p4326
I4362
sS'intensity'
p4327
I4363
sS'computer'
p4328
I4364
sS'usefulness'
p4329
I4365
sS'enhanced'
p4330
I4366
sS'refrained'
p4331
I4367
sS'omg'
p4332
I4368
sS'battery'
p4333
I3190
sS'cole'
p4334
I1954
sS'interacting'
p4335
I4371
sS'luv'
p4336
I4372
sS'ugliest'
p4337
I4083
sS'eve'
p4338
I4374
sS'nightmare'
p4339
I4375
sS'monstrous'
p4340
I4376
sS'meatballs'
p4341
I4377
sS'cruel'
p4342
I4479
sS'superb'
p4343
I4379
sS'favor'
p4344
I3479
sS'written'
p4345
I407
sS'convince'
p4346
I4805
sS'supernatural'
p4347
I4382
sS'fifties'
p4348
I4383
sS'closed'
p4349
I1858
sS'smelled'
p4350
I1161
sS'ebola'
p4351
I4386
sS'rendition'
p4352
I4387
sS'flicks'
p4353
I1870
sS'refreshing'
p4354
I4389
sS'frustrated'
p4355
I4390
sS'email'
p4356
I3719
sS'bought'
p4357
I1889
sS'walkman'
p4358
I3788
sS'ends'
p4359
I4395
sS'sole'
p4360
I4396
sS'dozen'
p4361
I3305
sS'bed'
p4362
I4177
sS'rotating'
p4363
I4282
sS'opening'
p4364
I1915
sS'joy'
p4365
I518
sS'deliver'
p4366
I4402
sS'day'
p4367
I4604
sS'job'
p4368
I4404
sS'joe'
p4369
I4405
sS'spoil'
p4370
I1964
sS'approval'
p4371
I1107
sS'configuration'
p4372
I4408
sS'problem'
p4373
I4809
sS'legit'
p4374
I1345
sS'gifted'
p4375
I4855
sS'interpretations'
p4376
I2004
sS'figured'
p4377
I4411
sS'instant'
p4378
I4412
sS'always'
p4379
I2795
sS'koteas'
p4380
I3688
sS'taking'
p4381
I4415
sS'la'
p4382
I3989
sS'trips'
p4383
I4417
sS'assure'
p4384
I4143
sS'tater'
p4385
I4419
sS'grain'
p4386
I4420
sS'constantine'
p4387
I2078
sS'petrified'
p4388
I4422
sS'section'
p4389
I4423
sS'puff'
p4390
I4424
sS'toro'
p4391
I4426
sS'unconvincing'
p4392
I2116
sS'comment'
p4393
I4428
sS'kidnapped'
p4394
I4227
sS'appetizers'
p4395
I4429
sS'co'
p4396
I4430
sS'gone'
p4397
I3293
sS'wall'
p4398
I4433
sS'ca'
p4399
I4434
sS'cg'
p4400
I4435
sS'forty'
p4401
I3255
sS'high'
p4402
I3905
sS'vinaigrette'
p4403
I4437
sS'interface'
p4404
I3158
sS'palate'
p4405
I4439
sS'laugh'
p4406
I2189
sS'sequences'
p4407
I4441
sS'unwatchable'
p4408
I4825
sS'cr'
p4409
I909
sS'olde'
p4410
I4126
sS'nigiri'
p4411
I2217
sS'quit'
p4412
I4445
sS'yay'
p4413
I4446
sS'addition'
p4414
I2255
sS'decent'
p4415
I4448
sS'muddy'
p4416
I4449
sS'copier'
p4417
I4450
sS'darren'
p4418
I2280
sS'relying'
p4419
I4453
sS'poured'
p4420
I2300
sS'teamwork'
p4421
I590
sS'treat'
p4422
I2308
sS'certain'
p4423
I2355
sS'curtain'
p4424
I2322
sS'hottest'
p4425
I4459
sS'waste'
p4426
I2331
sS'recurring'
p4427
I4461
sS'handset'
p4428
I4817
sS'bbq'
p4429
I146
sS'hernandez'
p4430
I4464
sS'describe'
p4431
I2357
sS'general'
p4432
I4478
sS'commuter'
p4433
I2380
sS'painted'
p4434
I4467
sS'am'
p4435
I2358
sS'ray'
p4436
I4470
sS'crappy'
p4437
I4471
sS'neighbour'
p4438
I4472
sS'made'
p4439
I4793
sS'finished'
p4440
I4473
sS'reviewers'
p4441
I2468
sS'angles'
p4442
I4474
sS'covered'
p4443
I4000
sS'last'
p4444
I3164
sS'brunch'
p4445
I4477
sS'fellow'
p4446
I2621
sS'land'
p4447
I3629
sS'multi'
p4448
I4481
sS'holiday'
p4449
I4482
sS'seasoned'
p4450
I4733
sS'abandoned'
p4451
I2489
sS'external'
p4452
I2436
sS'dodge'
p4453
I1438
sS'steep'
p4454
I4186
sS'means'
p4455
I4318
sS'restaurant'
p4456
I4487
sS'appearance'
p4457
I4488
sS'value'
p4458
I4489
sS'pretentious'
p4459
I2524
sS'will'
p4460
I4491
sS'meredith'
p4461
I4492
sS'stunning'
p4462
I4493
sS'owns'
p4463
I4494
sS'wild'
p4464
I4495
sS'instantly'
p4465
I2389
sS'adapter'
p4466
I4497
sS'at'
p4467
I2367
sS'direct'
p4468
I4499
sS'crafted'
p4469
I4440
sS've'
p4470
I2602
sS'almost'
p4471
I4502
sS'blood'
p4472
I2711
sS'insanely'
p4473
I4503
sS'thus'
p4474
I4504
sS'surprisingly'
p4475
I2626
sS'surface'
p4476
I4506
sS'roll'
p4477
I4507
sS'helped'
p4478
I3661
sS'authentic'
p4479
I2715
sS'excessively'
p4480
I4509
sS'dual'
p4481
I4510
sS'lifetime'
p4482
I4028
sS'thug'
p4483
I919
sS'bucks'
p4484
I4513
sS'sits'
p4485
I4514
sS'greater'
p4486
I4007
sS'moves'
p4487
I4515
sS'broke'
p4488
I2630
sS'prettier'
p4489
I3526
sS'generic'
p4490
I2727
sS'ipods'
p4491
I4827
sS'began'
p4492
I4518
sS'waitresses'
p4493
I4519
sS'connection'
p4494
I3174
sS'highlighted'
p4495
I2754
sS'foxx'
p4496
I4523
sS'parts'
p4497
I2766
sS'speaker'
p4498
I4525
sS'flower'
p4499
I4526
sS'dickens'
p4500
I4527
sS'inch'
p4501
I3572
sS'party'
p4502
I4529
sS'cream'
p4503
I4393
sS'privileged'
p4504
I4531
sS'difficult'
p4505
I4533
sS'succulent'
p4506
I1370
sS'ball'
p4507
I2821
sS'pho'
p4508
I4536
sS'eggplant'
p4509
I4537
sS'caesar'
p4510
I4521
sS'definately'
p4511
I869
sS'disagree'
p4512
I4540
sS'effect'
p4513
I4541
sS'san'
p4514
I4542
sS'pita'
p4515
I4543
sS'unintelligible'
p4516
I4544
sS'tsunami'
p4517
I4545
sS'student'
p4518
I4546
sS'robotic'
p4519
I4547
sS'pastry'
p4520
I4469
sS'jaclyn'
p4521
I4549
sS'wrongly'
p4522
I3608
sS'impeccable'
p4523
I4550
sS'endearing'
p4524
I4551
sS'pleasantly'
p4525
I4552
sS'south'
p4526
I3744
sS'protector'
p4527
I3180
sS'off'
p4528
I4553
sS'center'
p4529
I4554
sS'lunch'
p4530
I4555
sS'nevertheless'
p4531
I2958
sS'nonetheless'
p4532
I4557
sS'well'
p4533
I4558
sS'wants'
p4534
I2465
sS'sheer'
p4535
I4560
sS'qualified'
p4536
I4561
sS'belmondo'
p4537
I4562
sS'dressed'
p4538
I1679
sS'flirting'
p4539
I4564
sS'raving'
p4540
I3026
sS'drawing'
p4541
I4566
sS'shrimp'
p4542
I3912
sS'realised'
p4543
I2411
sS'blandly'
p4544
I4568
sS'cameo'
p4545
I1266
sS'barking'
p4546
I4571
sS'less'
p4547
I4572
sS'moments'
p4548
I4573
sS'swords'
p4549
I3301
sS'accurate'
p4550
I4575
sS'cakes'
p4551
I4577
sS'rolled'
p4552
I4578
sS'dose'
p4553
I4579
sS'arriving'
p4554
I4063
sS'palm'
p4555
I3427
sS'interim'
p4556
I3103
sS'distant'
p4557
I4583
sS'voltage'
p4558
I4584
sS'savalas'
p4559
I3117
sS'enterprise'
p4560
I3922
sS'tough'
p4561
I4587
sS'paul'
p4562
I4588
sS'keen'
p4563
I4589
sS'lettuce'
p4564
I4590
sS'rescue'
p4565
I482
sS'begin'
p4566
I4592
sS'web'
p4567
I4593
sS'generous'
p4568
I4594
sS'raver'
p4569
I4595
sS'likes'
p4570
I3200
sS'scrimm'
p4571
I4596
sS'exquisite'
p4572
I4597
sS'bowl'
p4573
I3314
sS'stratus'
p4574
I4599
sS'point'
p4575
I3189
sS'smith'
p4576
I4601
sS'wash'
p4577
I4602
sS'recommending'
p4578
I4603
sS'handy'
p4579
I4019
sS'script'
p4580
I2919
sS'add'
p4581
I4606
sS'book'
p4582
I4843
sS'unpredictability'
p4583
I810
sS'repertory'
p4584
I3230
sS'usage'
p4585
I4610
sS'ohhh'
p4586
I4611
sS'grow'
p4587
I4612
sS'titta'
p4588
I3784
sS'accomodate'
p4589
I4614
sS'acted'
p4590
I3192
sS'homework'
p4591
I2614
sS'ample'
p4592
I4617
sS'government'
p4593
I4618
sS'checking'
p4594
I4619
sS'pants'
p4595
I4392
sS'sweep'
p4596
I3194
sS'haul'
p4597
I4620
sS'humiliated'
p4598
I3411
sS'community'
p4599
I4328
sS'bartender'
p4600
I3820
sS'subversive'
p4601
I4394
sS'immediately'
p4602
I4624
sS'crayons'
p4603
I4625
sS'tick'
p4604
I4626
sS'unneeded'
p4605
I4627
sS'improper'
p4606
I3197
sS'incomprehensible'
p4607
I2498
sS'crisp'
p4608
I4630
sS'helpful'
p4609
I3389
sS'success'
p4610
I866
sS'sizes'
p4611
I4633
sS'teenagers'
p4612
I4197
sS'ring'
p4613
I4634
sS'profound'
p4614
I4635
sS'admitted'
p4615
I4636
sS'units'
p4616
I4528
sS'incendiary'
p4617
I4638
sS'garage'
p4618
I242
sS'burgers'
p4619
I4640
sS'martin'
p4620
I3462
sS'sidelined'
p4621
I856
sS'funniest'
p4622
I4643
sS'conrad'
p4623
I3475
sS'soft'
p4624
I4645
sS'awarded'
p4625
I4130
sS'italian'
p4626
I2094
sS'delicioso'
p4627
I2898
sS'shed'
p4628
I4650
sS'because'
p4629
I4651
sS'glare'
p4630
I4652
sS'dancing'
p4631
I3334
sS'sequence'
p4632
I3520
sS'footage'
p4633
I3530
sS'hummus'
p4634
I4516
sS'junk'
p4635
I4854
sS'beeping'
p4636
I1765
sS'hair'
p4637
I4659
sS'rave'
p4638
I4660
sS'almonds'
p4639
I3561
sS'warmer'
p4640
I4662
sS'convey'
p4641
I685
sS'recommendation'
p4642
I4346
sS'home'
p4643
I4665
sS'liking'
p4644
I4666
sS'meatloaf'
p4645
I3590
sS'suspension'
p4646
I4668
sS'refill'
p4647
I2770
sS'recognition'
p4648
I4670
sS'happens'
p4649
I4671
sS'nokia'
p4650
I4010
sS'cod'
p4651
I4672
sS'unfunny'
p4652
I3621
sS'aesthetically'
p4653
I4674
sS'jalapeno'
p4654
I1899
sS'trimmed'
p4655
I4413
sS'broad'
p4656
I2658
sS'avoid'
p4657
I4678
sS'miner'
p4658
I4679
sS'delightful'
p4659
I2147
sS'lestat'
p4660
I4885
sS'leap'
p4661
I4681
sS'does'
p4662
I3678
sS'passion'
p4663
I4683
sS'gradually'
p4664
I4684
sS'screwed'
p4665
I3698
sS'truffle'
p4666
I4686
sS'belt'
p4667
I3208
sS'chains'
p4668
I4688
sS'reenactments'
p4669
I4097
sS'trap'
p4670
I4071
sS'flavorful'
p4671
I4443
sS'thinly'
p4672
I865
sS'stagy'
p4673
I3734
sS'blacktop'
p4674
I4032
sS'reaching'
p4675
I4694
sS'stowe'
p4676
I303
sS'ability'
p4677
I4398
sS'paper'
p4678
I2745
sS'lugosi'
p4679
I3789
sS'poignant'
p4680
I3430
sS'outrageously'
p4681
I4698
sS'although'
p4682
I4699
sS'worthy'
p4683
I3815
sS'pasta'
p4684
I4701
sS'weaving'
p4685
I4702
sS'choked'
p4686
I4703
sS'stay'
p4687
I4864
sS'repair'
p4688
I3494
sS'periodically'
p4689
I4705
sS'science'
p4690
I2644
sS'plastic'
p4691
I1680
sS'sister'
p4692
I3859
sS'actual'
p4693
I1466
sS'carried'
p4694
I4710
sS'world'
p4695
I3352
sS'face'
p4696
I4259
sS'universe'
p4697
I3889
sS'biscuit'
p4698
I4714
sS'widmark'
p4699
I3594
sS'shipping'
p4700
I4716
sS'angeles'
p4701
I4717
sS'celluloid'
p4702
I4718
sS'fear'
p4703
I4287
sS'grainy'
p4704
I4720
sS'cranberry'
p4705
I4721
sS'nevsky'
p4706
I4722
sS'whistles'
p4707
I3945
sS'tongue'
p4708
I4724
sS'flair'
p4709
I4532
sS'documentary'
p4710
I3670
sS'intangibles'
p4711
I4727
sS'software'
p4712
I4728
sS'warranty'
p4713
I4729
sS'equally'
p4714
I4730
sS'own'
p4715
I4731
sS'childrens'
p4716
I2012
sS'keeps'
p4717
I1782
sS'political'
p4718
I3217
sS'nerves'
p4719
I4642
sS'mgm'
p4720
I4735
sS'functional'
p4721
I4736
sS'getting'
p4722
I4712
sS'mushrooms'
p4723
I4737
sS'classics'
p4724
I4738
sS'anniversary'
p4725
I4739
sS'promise'
p4726
I4740
sS'rochon'
p4727
I2313
sS'female'
p4728
I4042
sS'joyce'
p4729
I4046
sS'austen'
p4730
I4744
sS'lovely'
p4731
I4745
sS'couldnt'
p4732
I4746
sS'screened'
p4733
I4747
sS'forget'
p4734
I2440
sS'mere'
p4735
I4749
sS'brilliantly'
p4736
I4074
sS'descriptions'
p4737
I4751
sS'roth'
p4738
I4639
sS'accused'
p4739
I4752
sS'additional'
p4740
I4753
sS'exciting'
p4741
I3268
sS'rushed'
p4742
I3054
sS'transfer'
p4743
I4757
sS'vegetables'
p4744
I4758
sS'pairing'
p4745
I4759
sS'beer'
p4746
I4760
sS'spots'
p4747
I4761
sS'imperial'
p4748
I2864
sS'accountant'
p4749
I4763
sS'solidify'
p4750
I4649
sS'frustration'
p4751
I4765
sS'tepid'
p4752
I4766
sS'powdered'
p4753
I2518
sS'cliff'
p4754
I4768
sS'flynn'
p4755
I4769
sS'pg'
p4756
I3224
sS'function'
p4757
I4770
sS'building'
p4758
I4771
sS'callings'
p4759
I1003
sS'north'
p4760
I4773
sS'gluten'
p4761
I4774
sS'exchanged'
p4762
I4314
sS'bus'
p4763
I4775
sS'polite'
p4764
I4501
sS'bitches'
p4765
I4235
sS'eiko'
p4766
I4778
sS'commands'
p4767
I4779
sS'extended'
p4768
I2082
sS'hated'
p4769
I3362
sS'volume'
p4770
I2329
sS'reminds'
p4771
I4783
sS'repeated'
p4772
I4784
sS'hi'
p4773
I4263
sS'gain'
p4774
I4271
sS'youthful'
p4775
I3492
sS'delivers'
p4776
I4787
sS'editing'
p4777
I1757
sS'eat'
p4778
I1045
sS'versatile'
p4779
I4305
sS'he'
p4780
I4791
sS'count'
p4781
I4792
sS'also'
p4782
I2998
sS'pi'
p4783
I3229
sS'wise'
p4784
I4794
sS'converter'
p4785
I4795
sS'temp'
p4786
I4339
sS'whether'
p4787
I4797
sS'dangerous'
p4788
I4348
sS'angela'
p4789
I3508
sS'official'
p4790
I4799
sS'smooth'
p4791
I4800
sS'hosting'
p4792
I1251
sS'distract'
p4793
I4802
sS'wholesome'
p4794
I3326
sS'garbo'
p4795
I4378
sS'slowly'
p4796
I4456
sS'carpaccio'
p4797
I3978
sS'delights'
p4798
I4807
sS'cake'
p4799
I4808
sS'lieutenant'
p4800
I4696
sS'piece'
p4801
I4810
sS'minutes'
p4802
I4811
sS'thorn'
p4803
I2422
sS'excruciatingly'
p4804
I4432
sS'condiment'
p4805
I4816
sS'universal'
p4806
I4462
sS'penny'
p4807
I4818
sS'correction'
p4808
I4819
sS'lasted'
p4809
I4880
sS'twist'
p4810
I4820
sS'sibling'
p4811
I4821
sS'beats'
p4812
I4822
sS'websites'
p4813
I2424
sS'penne'
p4814
I4824
sS'uptight'
p4815
I3794
sS'crystals'
p4816
I624
sS'shooting'
p4817
I4826
sS'waitress'
p4818
I4112
sS'happen'
p4819
I4828
sS'slipping'
p4820
I4680
sS'sharply'
p4821
I4831
sS'renowned'
p4822
I2397
sS'pucks'
p4823
I1894
sS'mushroom'
p4824
I891
sS'ingredients'
p4825
I3585
sS'corporation'
p4826
I1320
sS'cashew'
p4827
I4569
sS'offensive'
p4828
I3065
sS'directors'
p4829
I4839
sS'lately'
p4830
I4840
sS'deserved'
p4831
I4842
sS'other'
p4832
I4607
sS'details'
p4833
I4844
sS'sick'
p4834
I4845
sS'most'
p4835
I3014
sS'incredibly'
p4836
I4848
sS'clicks'
p4837
I4849
sS'contacting'
p4838
I4850
sS'conclusion'
p4839
I4851
sS'lance'
p4840
I4852
sS'irons'
p4841
I4853
sS'fodder'
p4842
I4657
sS'francisco'
p4843
I4661
sS'star'
p4844
I4856
sS'topic'
p4845
I4857
sS'plate'
p4846
I4858
sS'worker'
p4847
I3040
sS'gay'
p4848
I3237
sS'become'
p4849
I4860
sS'june'
p4850
I4861
sS'outlets'
p4851
I4862
sS'variation'
p4852
I4863
sS'insults'
p4853
I4704
sS'flowed'
p4854
I3188
sS'chance'
p4855
I4866
sS'kinda'
p4856
I4867
sS'gloriously'
p4857
I4868
sS'capers'
p4858
I4869
sS'priced'
p4859
I3244
sS'friends'
p4860
I4871
sS'opened'
p4861
I1604
sS'platter'
p4862
I4873
sS'lukewarm'
p4863
I4874
sS'amp'
p4864
I4875
sS'insipid'
p4865
I3201
sS'ranks'
p4866
I4877
sS'entertainment'
p4867
I4062
sS'jewel'
p4868
I4879
sS'fest'
p4869
I1928
sS'strings'
p4870
I4881
sS'portion'
p4871
I4336
sS'pandering'
p4872
I4883
sS'compete'
p4873
I4884
sS'situations'
p4874
I2877
sS'searched'
p4875
I4886
sS'lives'
p4876
I4887
sS'yell'
p4877
I4888
sS'abhor'
p4878
I4889
sS'jawbone'
p4879
I4890
s.